	.text
	.syntax unified
	.eabi_attribute	67, "2.09"	@ Tag_conformance
	.cpu	cortex-a8
	.eabi_attribute	6, 10	@ Tag_CPU_arch
	.eabi_attribute	7, 65	@ Tag_CPU_arch_profile
	.eabi_attribute	8, 1	@ Tag_ARM_ISA_use
	.eabi_attribute	9, 2	@ Tag_THUMB_ISA_use
	.fpu	neon
	.eabi_attribute	17, 1	@ Tag_ABI_PCS_GOT_use
	.eabi_attribute	20, 2	@ Tag_ABI_FP_denormal
	.eabi_attribute	23, 1	@ Tag_ABI_FP_number_model
	.eabi_attribute	34, 1	@ Tag_CPU_unaligned_access
	.eabi_attribute	24, 1	@ Tag_ABI_align_needed
	.eabi_attribute	25, 1	@ Tag_ABI_align_preserved
	.eabi_attribute	28, 1	@ Tag_ABI_VFP_args
	.eabi_attribute	38, 1	@ Tag_ABI_FP_16bit_format
	.eabi_attribute	18, 4	@ Tag_ABI_PCS_wchar_t
	.eabi_attribute	26, 2	@ Tag_ABI_enum_size
	.eabi_attribute	14, 0	@ Tag_ABI_PCS_R9_use
	.eabi_attribute	68, 1	@ Tag_Virtualization_use
	.file	"/root/Bela/projects/granular_delay/build/Granulator.bc"
	.file	1 "/usr/bin/../lib/gcc/arm-linux-gnueabihf/6.3.0/../../../../include/arm-linux-gnueabihf/c++/6.3.0/bits" "c++config.h"
	.file	2 "/usr/bin/../lib/gcc/arm-linux-gnueabihf/6.3.0/../../../../include/c++/6.3.0/bits" "alloc_traits.h"
	.file	3 "/usr/bin/../lib/gcc/arm-linux-gnueabihf/6.3.0/../../../../include/c++/6.3.0/ext" "new_allocator.h"
	.file	4 "/usr/bin/../lib/gcc/arm-linux-gnueabihf/6.3.0/../../../../include/arm-linux-gnueabihf/c++/6.3.0/bits" "c++allocator.h"
	.file	5 "/usr/bin/../lib/gcc/arm-linux-gnueabihf/6.3.0/../../../../include/c++/6.3.0/bits" "allocator.h"
	.file	6 "/usr/bin/../lib/gcc/arm-linux-gnueabihf/6.3.0/../../../../include/c++/6.3.0/ext" "alloc_traits.h"
	.file	7 "/usr/bin/../lib/gcc/arm-linux-gnueabihf/6.3.0/../../../../include/c++/6.3.0/bits" "stl_vector.h"
	.file	8 "/usr/bin/../lib/gcc/arm-linux-gnueabihf/6.3.0/../../../../include/c++/6.3.0/bits" "stl_iterator.h"
	.file	9 "/usr/bin/../lib/gcc/arm-linux-gnueabihf/6.3.0/../../../../include/c++/6.3.0/bits" "stl_iterator_base_types.h"
	.file	10 "/usr/bin/../lib/gcc/arm-linux-gnueabihf/6.3.0/../../../../include/c++/6.3.0" "type_traits"
	.file	11 "/root/Bela/projects/granular_delay/GrainGenerator" "GrainGenerator.h"
	.file	12 "/usr/bin/../lib/gcc/arm-linux-gnueabihf/6.3.0/../../../../include/c++/6.3.0/bits" "stringfwd.h"
	.file	13 "/usr/bin/../lib/gcc/arm-linux-gnueabihf/6.3.0/../../../../include/c++/6.3.0/debug" "debug.h"
	.file	14 "/usr/bin/../lib/gcc/arm-linux-gnueabihf/6.3.0/../../../../include/c++/6.3.0/bits" "exception_ptr.h"
	.file	15 "/usr/include" "wchar.h"
	.file	16 "/usr/lib/llvm-3.9/bin/../lib/clang/3.9.1/include" "stddef.h"
	.file	17 "/usr/include" "libio.h"
	.file	18 "/usr/include/arm-linux-gnueabihf/bits" "types.h"
	.file	19 "/usr/include" "stdio.h"
	.file	20 "/usr/lib/llvm-3.9/bin/../lib/clang/3.9.1/include" "stdarg.h"
	.file	21 "/usr/include" "stdint.h"
	.file	22 "/usr/include" "locale.h"
	.file	23 "/usr/include" "ctype.h"
	.file	24 "/usr/include" "stdlib.h"
	.file	25 "/usr/include/arm-linux-gnueabihf/bits" "stdlib-float.h"
	.file	26 "/usr/include/arm-linux-gnueabihf/bits" "stdlib-bsearch.h"
	.file	27 "/usr/bin/../lib/gcc/arm-linux-gnueabihf/6.3.0/../../../../include/c++/6.3.0" "cstdlib"
	.file	28 "/usr/include" "_G_config.h"
	.file	29 "/usr/include/arm-linux-gnueabihf/bits" "stdio.h"
	.file	30 "/usr/include/arm-linux-gnueabihf/bits" "math-finite.h"
	.file	31 "/usr/include/arm-linux-gnueabihf/bits" "mathcalls.h"
	.file	32 "/usr/include/arm-linux-gnueabihf/bits" "mathdef.h"
	.globl	_ZN10GranulatorC2Ei
	.p2align	2
	.type	_ZN10GranulatorC2Ei,%function
_ZN10GranulatorC2Ei:                    @ @_ZN10GranulatorC2Ei
.Lfunc_begin0:
	.file	33 "/root/Bela/projects/granular_delay" "Granulator.cpp"
	.loc	33 7 0                  @ /root/Bela/projects/granular_delay/Granulator.cpp:7:0
	.fnstart
	.cfi_startproc
@ BB#0:
	@DEBUG_VALUE: Granulator:this <- %R0
	@DEBUG_VALUE: Granulator:numVoices <- %R1
	mov	r2, #0
.Ltmp0:
	.loc	33 8 18 prologue_end    @ /root/Bela/projects/granular_delay/Granulator.cpp:8:18
	str	r1, [r0, #8]
.Ltmp1:
	.loc	7 87 22                 @ /usr/bin/../lib/gcc/arm-linux-gnueabihf/6.3.0/../../../../include/c++/6.3.0/bits/stl_vector.h:87:22
	str	r2, [r0, #12]
	.loc	7 87 34 is_stmt 0       @ /usr/bin/../lib/gcc/arm-linux-gnueabihf/6.3.0/../../../../include/c++/6.3.0/bits/stl_vector.h:87:34
	str	r2, [r0, #16]
	.loc	7 87 47                 @ /usr/bin/../lib/gcc/arm-linux-gnueabihf/6.3.0/../../../../include/c++/6.3.0/bits/stl_vector.h:87:47
	str	r2, [r0, #20]
.Ltmp2:
	.loc	33 10 1 is_stmt 1       @ /root/Bela/projects/granular_delay/Granulator.cpp:10:1
	bx	lr
.Ltmp3:
.Lfunc_end0:
	.size	_ZN10GranulatorC2Ei, .Lfunc_end0-_ZN10GranulatorC2Ei
	.cfi_endproc
	.file	34 "/root/Bela/projects/granular_delay" "Granulator.h"
	.fnend

	.globl	_ZN10GranulatorD2Ev
	.p2align	2
	.type	_ZN10GranulatorD2Ev,%function
_ZN10GranulatorD2Ev:                    @ @_ZN10GranulatorD2Ev
.Lfunc_begin1:
	.loc	33 12 0                 @ /root/Bela/projects/granular_delay/Granulator.cpp:12:0
	.fnstart
	.cfi_startproc
@ BB#0:
	.save	{r4, r5, r6, r10, r11, lr}
	push	{r4, r5, r6, r10, r11, lr}
.Ltmp4:
	.cfi_def_cfa_offset 24
.Ltmp5:
	.cfi_offset lr, -4
.Ltmp6:
	.cfi_offset r11, -8
.Ltmp7:
	.cfi_offset r10, -12
.Ltmp8:
	.cfi_offset r6, -16
.Ltmp9:
	.cfi_offset r5, -20
.Ltmp10:
	.cfi_offset r4, -24
	.setfp	r11, sp, #16
	add	r11, sp, #16
.Ltmp11:
	.cfi_def_cfa r11, 8
	@DEBUG_VALUE: ~Granulator:this <- %R0
	mov	r4, r0
.Ltmp12:
	@DEBUG_VALUE: __destroy<GrainGenerator *>:__last <- %R6
	@DEBUG_VALUE: _Destroy<GrainGenerator *>:__last <- %R6
	@DEBUG_VALUE: _Destroy<GrainGenerator *, GrainGenerator>:__last <- %R6
	@DEBUG_VALUE: _Destroy<GrainGenerator *, GrainGenerator>:__first <- %R5
	@DEBUG_VALUE: _Destroy<GrainGenerator *>:__first <- %R5
	@DEBUG_VALUE: __destroy<GrainGenerator *>:__first <- %R5
	@DEBUG_VALUE: ~Granulator:this <- %R4
	.loc	7 426 37 prologue_end   @ /usr/bin/../lib/gcc/arm-linux-gnueabihf/6.3.0/../../../../include/c++/6.3.0/bits/stl_vector.h:426:37
	ldr	r5, [r4, #12]
.Ltmp13:
	.loc	7 426 61 is_stmt 0      @ /usr/bin/../lib/gcc/arm-linux-gnueabihf/6.3.0/../../../../include/c++/6.3.0/bits/stl_vector.h:426:61
	ldr	r6, [r4, #16]
.Ltmp14:
	.file	35 "/usr/bin/../lib/gcc/arm-linux-gnueabihf/6.3.0/../../../../include/c++/6.3.0/bits" "stl_construct.h"
	.loc	35 102 4 is_stmt 1 discriminator 1 @ /usr/bin/../lib/gcc/arm-linux-gnueabihf/6.3.0/../../../../include/c++/6.3.0/bits/stl_construct.h:102:4
	cmp	r5, r6
	beq	.LBB1_5
.Ltmp15:
.LBB1_1:                                @ %.lr.ph.i.i.i.i
                                        @ =>This Inner Loop Header: Depth=1
	@DEBUG_VALUE: __addressof<GrainGenerator>:__r <- %R5
	.loc	7 160 37                @ /usr/bin/../lib/gcc/arm-linux-gnueabihf/6.3.0/../../../../include/c++/6.3.0/bits/stl_vector.h:160:37
	ldr	r0, [r5]
.Ltmp16:
	@DEBUG_VALUE: _M_deallocate:__p <- %R0
	@DEBUG_VALUE: deallocate:__p <- %R0
	@DEBUG_VALUE: deallocate:__p <- %R0
	.loc	7 177 6                 @ /usr/bin/../lib/gcc/arm-linux-gnueabihf/6.3.0/../../../../include/c++/6.3.0/bits/stl_vector.h:177:6
	cmp	r0, #0
	beq	.LBB1_3
.Ltmp17:
@ BB#2:                                 @   in Loop: Header=BB1_1 Depth=1
	@DEBUG_VALUE: deallocate:__p <- %R0
	@DEBUG_VALUE: deallocate:__p <- %R0
	@DEBUG_VALUE: _M_deallocate:__p <- %R0
	@DEBUG_VALUE: __addressof<GrainGenerator>:__r <- %R5
	.loc	3 110 9                 @ /usr/bin/../lib/gcc/arm-linux-gnueabihf/6.3.0/../../../../include/c++/6.3.0/ext/new_allocator.h:110:9
	bl	_ZdlPv
.Ltmp18:
.LBB1_3:                                @ %_ZSt8_DestroyI14GrainGeneratorEvPT_.exit.i.i.i.i
                                        @   in Loop: Header=BB1_1 Depth=1
	@DEBUG_VALUE: __addressof<GrainGenerator>:__r <- %R5
	.loc	35 102 30 discriminator 2 @ /usr/bin/../lib/gcc/arm-linux-gnueabihf/6.3.0/../../../../include/c++/6.3.0/bits/stl_construct.h:102:30
	add	r5, r5, #40
.Ltmp19:
	@DEBUG_VALUE: __destroy<GrainGenerator *>:__first <- %R5
	.loc	35 102 4 is_stmt 0 discriminator 1 @ /usr/bin/../lib/gcc/arm-linux-gnueabihf/6.3.0/../../../../include/c++/6.3.0/bits/stl_construct.h:102:4
	cmp	r6, r5
	bne	.LBB1_1
.Ltmp20:
@ BB#4:                                 @ %_ZSt8_DestroyIP14GrainGeneratorS0_EvT_S2_RSaIT0_E.exit.loopexit.i
	@DEBUG_VALUE: __destroy<GrainGenerator *>:__first <- %R5
	.loc	7 160 37 is_stmt 1      @ /usr/bin/../lib/gcc/arm-linux-gnueabihf/6.3.0/../../../../include/c++/6.3.0/bits/stl_vector.h:160:37
	ldr	r5, [r4, #12]
.Ltmp21:
.LBB1_5:                                @ %_ZSt8_DestroyIP14GrainGeneratorS0_EvT_S2_RSaIT0_E.exit.i
	@DEBUG_VALUE: _M_deallocate:__p <- %R5
	.loc	7 177 6                 @ /usr/bin/../lib/gcc/arm-linux-gnueabihf/6.3.0/../../../../include/c++/6.3.0/bits/stl_vector.h:177:6
	cmp	r5, #0
	beq	.LBB1_7
.Ltmp22:
@ BB#6:
	@DEBUG_VALUE: _M_deallocate:__p <- %R5
	.loc	3 110 9                 @ /usr/bin/../lib/gcc/arm-linux-gnueabihf/6.3.0/../../../../include/c++/6.3.0/ext/new_allocator.h:110:9
	mov	r0, r5
	bl	_ZdlPv
.Ltmp23:
.LBB1_7:                                @ %_ZNSt6vectorI14GrainGeneratorSaIS0_EED2Ev.exit
	@DEBUG_VALUE: _M_deallocate:__p <- %R5
	.loc	33 14 1                 @ /root/Bela/projects/granular_delay/Granulator.cpp:14:1
	mov	r0, r4
	pop	{r4, r5, r6, r10, r11, pc}
.Ltmp24:
.Lfunc_end1:
	.size	_ZN10GranulatorD2Ev, .Lfunc_end1-_ZN10GranulatorD2Ev
	.cfi_endproc
	.fnend

	.globl	_ZN10Granulator12setAllParamsEf
	.p2align	2
	.type	_ZN10Granulator12setAllParamsEf,%function
_ZN10Granulator12setAllParamsEf:        @ @_ZN10Granulator12setAllParamsEf
.Lfunc_begin2:
	.loc	33 19 0                 @ /root/Bela/projects/granular_delay/Granulator.cpp:19:0
	.fnstart
	.cfi_startproc
@ BB#0:
	.save	{r4, r5, r6, r7, r11, lr}
	push	{r4, r5, r6, r7, r11, lr}
.Ltmp25:
	.cfi_def_cfa_offset 24
.Ltmp26:
	.cfi_offset lr, -4
.Ltmp27:
	.cfi_offset r11, -8
.Ltmp28:
	.cfi_offset r7, -12
.Ltmp29:
	.cfi_offset r6, -16
.Ltmp30:
	.cfi_offset r5, -20
.Ltmp31:
	.cfi_offset r4, -24
	.setfp	r11, sp, #16
	add	r11, sp, #16
.Ltmp32:
	.cfi_def_cfa r11, 8
	.vsave	{d8}
	vpush	{d8}
.Ltmp33:
	.cfi_offset d8, -32
	@DEBUG_VALUE: setAllParams:this <- %R0
	@DEBUG_VALUE: setAllParams:speed <- %S0
	vmov.f32	s16, s0
.Ltmp34:
	@DEBUG_VALUE: setAllParams:speed <- %S16
	mov	r4, r0
.Ltmp35:
	@DEBUG_VALUE: i <- 0
	@DEBUG_VALUE: setAllParams:this <- %R4
	.loc	7 656 66 prologue_end   @ /usr/bin/../lib/gcc/arm-linux-gnueabihf/6.3.0/../../../../include/c++/6.3.0/bits/stl_vector.h:656:66
	ldr	r0, [r4, #12]
	.loc	7 656 40 is_stmt 0      @ /usr/bin/../lib/gcc/arm-linux-gnueabihf/6.3.0/../../../../include/c++/6.3.0/bits/stl_vector.h:656:40
	ldr	r1, [r4, #16]
.Ltmp36:
	.loc	33 20 2 is_stmt 1 discriminator 1 @ /root/Bela/projects/granular_delay/Granulator.cpp:20:2
	cmp	r1, r0
	beq	.LBB2_3
.Ltmp37:
@ BB#1:                                 @ %.lr.ph.preheader
	@DEBUG_VALUE: setAllParams:this <- %R4
	@DEBUG_VALUE: setAllParams:speed <- %S16
	.loc	7 656 50                @ /usr/bin/../lib/gcc/arm-linux-gnueabihf/6.3.0/../../../../include/c++/6.3.0/bits/stl_vector.h:656:50
	movw	r6, #52429
	mov	r5, #0
	movt	r6, #52428
	mov	r7, #0
.Ltmp38:
.LBB2_2:                                @ %.lr.ph
                                        @ =>This Inner Loop Header: Depth=1
	@DEBUG_VALUE: operator[]:__n <- %R7
	.loc	33 21 18 discriminator 1 @ /root/Bela/projects/granular_delay/Granulator.cpp:21:18
	vmov.f32	s0, s16
	add	r0, r0, r5
	bl	_ZN14GrainGenerator8setSpeedEf
.Ltmp39:
	.loc	7 656 66                @ /usr/bin/../lib/gcc/arm-linux-gnueabihf/6.3.0/../../../../include/c++/6.3.0/bits/stl_vector.h:656:66
	ldr	r0, [r4, #12]
.Ltmp40:
	.loc	33 20 20 discriminator 1 @ /root/Bela/projects/granular_delay/Granulator.cpp:20:20
	add	r5, r5, #40
.Ltmp41:
	.loc	7 656 40                @ /usr/bin/../lib/gcc/arm-linux-gnueabihf/6.3.0/../../../../include/c++/6.3.0/bits/stl_vector.h:656:40
	ldr	r1, [r4, #16]
.Ltmp42:
	.loc	33 20 49 discriminator 3 @ /root/Bela/projects/granular_delay/Granulator.cpp:20:49
	add	r7, r7, #1
.Ltmp43:
	@DEBUG_VALUE: i <- %R7
	.loc	7 656 50                @ /usr/bin/../lib/gcc/arm-linux-gnueabihf/6.3.0/../../../../include/c++/6.3.0/bits/stl_vector.h:656:50
	sub	r1, r1, r0
	asr	r1, r1, #3
	mul	r1, r1, r6
.Ltmp44:
	.loc	33 20 2 discriminator 1 @ /root/Bela/projects/granular_delay/Granulator.cpp:20:2
	cmp	r7, r1
	blo	.LBB2_2
.Ltmp45:
.LBB2_3:                                @ %._crit_edge
	.loc	33 23 1                 @ /root/Bela/projects/granular_delay/Granulator.cpp:23:1
	vpop	{d8}
	pop	{r4, r5, r6, r7, r11, pc}
.Ltmp46:
.Lfunc_end2:
	.size	_ZN10Granulator12setAllParamsEf, .Lfunc_end2-_ZN10Granulator12setAllParamsEf
	.cfi_endproc
	.fnend

	.globl	_ZN10Granulator7processEv
	.p2align	2
	.type	_ZN10Granulator7processEv,%function
_ZN10Granulator7processEv:              @ @_ZN10Granulator7processEv
.Lfunc_begin3:
	.loc	33 26 0                 @ /root/Bela/projects/granular_delay/Granulator.cpp:26:0
	.fnstart
	.cfi_startproc
@ BB#0:
	@DEBUG_VALUE: process:this <- %R0
	.loc	33 28 1 prologue_end    @ /root/Bela/projects/granular_delay/Granulator.cpp:28:1
	bx	lr
.Ltmp47:
.Lfunc_end3:
	.size	_ZN10Granulator7processEv, .Lfunc_end3-_ZN10Granulator7processEv
	.cfi_endproc
	.fnend

	.globl	_ZN10Granulator11triggerNoteEi
	.p2align	2
	.type	_ZN10Granulator11triggerNoteEi,%function
_ZN10Granulator11triggerNoteEi:         @ @_ZN10Granulator11triggerNoteEi
.Lfunc_begin4:
	.loc	33 31 0                 @ /root/Bela/projects/granular_delay/Granulator.cpp:31:0
	.fnstart
	.cfi_startproc
@ BB#0:
	@DEBUG_VALUE: triggerNote:this <- %R0
	@DEBUG_VALUE: triggerNote:pitch_idx <- %R1
	.loc	33 33 1 prologue_end    @ /root/Bela/projects/granular_delay/Granulator.cpp:33:1
	bx	lr
.Ltmp48:
.Lfunc_end4:
	.size	_ZN10Granulator11triggerNoteEi, .Lfunc_end4-_ZN10Granulator11triggerNoteEi
	.cfi_endproc
	.fnend

	.section	".note.GNU-stack","",%progbits
	.eabi_attribute	30, 2	@ Tag_ABI_optimization_goals