	.text
	.syntax unified
	.eabi_attribute	67, "2.09"	@ Tag_conformance
	.cpu	cortex-a8
	.eabi_attribute	6, 10	@ Tag_CPU_arch
	.eabi_attribute	7, 65	@ Tag_CPU_arch_profile
	.eabi_attribute	8, 1	@ Tag_ARM_ISA_use
	.eabi_attribute	9, 2	@ Tag_THUMB_ISA_use
	.fpu	neon
	.eabi_attribute	17, 1	@ Tag_ABI_PCS_GOT_use
	.eabi_attribute	20, 2	@ Tag_ABI_FP_denormal
	.eabi_attribute	23, 1	@ Tag_ABI_FP_number_model
	.eabi_attribute	34, 1	@ Tag_CPU_unaligned_access
	.eabi_attribute	24, 1	@ Tag_ABI_align_needed
	.eabi_attribute	25, 1	@ Tag_ABI_align_preserved
	.eabi_attribute	28, 1	@ Tag_ABI_VFP_args
	.eabi_attribute	38, 1	@ Tag_ABI_FP_16bit_format
	.eabi_attribute	18, 4	@ Tag_ABI_PCS_wchar_t
	.eabi_attribute	26, 2	@ Tag_ABI_enum_size
	.eabi_attribute	14, 0	@ Tag_ABI_PCS_R9_use
	.eabi_attribute	68, 1	@ Tag_Virtualization_use
	.file	"/root/Bela/projects/granular_delay/build/render.bc"
	.file	1 "/usr/bin/../lib/gcc/arm-linux-gnueabihf/6.3.0/../../../../include/arm-linux-gnueabihf/c++/6.3.0/bits" "c++config.h"
	.file	2 "/usr/bin/../lib/gcc/arm-linux-gnueabihf/6.3.0/../../../../include/c++/6.3.0/bits" "stringfwd.h"
	.file	3 "/root/Bela/projects/granular_delay" "render.cpp"
	.file	4 "/usr/bin/../lib/gcc/arm-linux-gnueabihf/6.3.0/../../../../include/c++/6.3.0/bits" "alloc_traits.h"
	.file	5 "./include" "DataBuffer.h"
	.file	6 "/usr/bin/../lib/gcc/arm-linux-gnueabihf/6.3.0/../../../../include/c++/6.3.0/ext" "alloc_traits.h"
	.file	7 "/usr/bin/../lib/gcc/arm-linux-gnueabihf/6.3.0/../../../../include/c++/6.3.0/bits" "stl_vector.h"
	.file	8 "/usr/bin/../lib/gcc/arm-linux-gnueabihf/6.3.0/../../../../include/c++/6.3.0" "type_traits"
	.file	9 "/usr/include" "stdint.h"
	.file	10 "/usr/bin/../lib/gcc/arm-linux-gnueabihf/6.3.0/../../../../include/c++/6.3.0/ext" "new_allocator.h"
	.file	11 "/usr/bin/../lib/gcc/arm-linux-gnueabihf/6.3.0/../../../../include/arm-linux-gnueabihf/c++/6.3.0/bits" "c++allocator.h"
	.file	12 "/usr/bin/../lib/gcc/arm-linux-gnueabihf/6.3.0/../../../../include/c++/6.3.0/bits" "allocator.h"
	.file	13 "./libraries/Gui" "Gui.h"
	.file	14 "/usr/bin/../lib/gcc/arm-linux-gnueabihf/6.3.0/../../../../include/c++/6.3.0/bits" "unique_ptr.h"
	.file	15 "/usr/bin/../lib/gcc/arm-linux-gnueabihf/6.3.0/../../../../include/c++/6.3.0" "tuple"
	.file	16 "/usr/bin/../lib/gcc/arm-linux-gnueabihf/6.3.0/../../../../include/c++/6.3.0/bits" "uses_allocator.h"
	.file	17 "/usr/bin/../lib/gcc/arm-linux-gnueabihf/6.3.0/../../../../include/c++/6.3.0/bits" "stl_function.h"
	.file	18 "/usr/bin/../lib/gcc/arm-linux-gnueabihf/6.3.0/../../../../include/c++/6.3.0" "functional"
	.file	19 "/usr/lib/llvm-3.9/bin/../lib/clang/3.9.1/include" "stddef.h"
	.file	20 "/usr/bin/../lib/gcc/arm-linux-gnueabihf/6.3.0/../../../../include/c++/6.3.0" "initializer_list"
	.file	21 "/usr/bin/../lib/gcc/arm-linux-gnueabihf/6.3.0/../../../../include/c++/6.3.0/bits" "stl_iterator.h"
	.file	22 "/usr/bin/../lib/gcc/arm-linux-gnueabihf/6.3.0/../../../../include/c++/6.3.0/bits" "stl_iterator_base_types.h"
	.file	23 "/root/Bela/projects/granular_delay/./GrainGenerator" "GrainGenerator.h"
	.file	24 "/usr/bin/../lib/gcc/arm-linux-gnueabihf/6.3.0/../../../../include/c++/6.3.0/ext" "concurrence.h"
	.file	25 "/usr/bin/../lib/gcc/arm-linux-gnueabihf/6.3.0/../../../../include/c++/6.3.0/bits" "cpp_type_traits.h"
	.file	26 "/usr/bin/../lib/gcc/arm-linux-gnueabihf/6.3.0/../../../../include/c++/6.3.0/bits" "basic_string.h"
	.file	27 "/usr/bin/../lib/gcc/arm-linux-gnueabihf/6.3.0/../../../../include/c++/6.3.0/bits" "char_traits.h"
	.file	28 "/usr/bin/../lib/gcc/arm-linux-gnueabihf/6.3.0/../../../../include/c++/6.3.0/debug" "debug.h"
	.file	29 "/usr/bin/../lib/gcc/arm-linux-gnueabihf/6.3.0/../../../../include/c++/6.3.0/bits" "exception_ptr.h"
	.file	30 "/usr/include" "wchar.h"
	.file	31 "/usr/include" "libio.h"
	.file	32 "/usr/include/arm-linux-gnueabihf/bits" "types.h"
	.file	33 "/usr/include" "stdio.h"
	.file	34 "/usr/lib/llvm-3.9/bin/../lib/clang/3.9.1/include" "stdarg.h"
	.file	35 "/usr/include" "time.h"
	.file	36 "/usr/include" "locale.h"
	.file	37 "/usr/include" "ctype.h"
	.file	38 "/usr/include" "stdlib.h"
	.file	39 "/usr/include/arm-linux-gnueabihf/bits" "stdlib-float.h"
	.file	40 "/usr/include/arm-linux-gnueabihf/bits" "stdlib-bsearch.h"
	.file	41 "/usr/bin/../lib/gcc/arm-linux-gnueabihf/6.3.0/../../../../include/c++/6.3.0" "cstdlib"
	.file	42 "/usr/include" "_G_config.h"
	.file	43 "/usr/include/arm-linux-gnueabihf/bits" "stdio.h"
	.file	44 "/usr/include/arm-linux-gnueabihf/bits" "math-finite.h"
	.file	45 "/usr/include/arm-linux-gnueabihf/bits" "mathcalls.h"
	.file	46 "/usr/include/arm-linux-gnueabihf/bits" "mathdef.h"
	.file	47 "/usr/include" "string.h"
	.file	48 "/usr/include" "wctype.h"
	.section	.text.startup,"ax",%progbits
	.p2align	2
	.type	__cxx_global_array_dtor,%function
__cxx_global_array_dtor:                @ @__cxx_global_array_dtor
.Lfunc_begin0:
	.file	49 "/root/Bela/projects/granular_delay/build" "render.cpp"
	.loc	49 30 0                 @ /root/Bela/projects/granular_delay/build/render.cpp:30:0
	.fnstart
	.cfi_startproc
@ BB#0:
	.save	{r4, r10, r11, lr}
	push	{r4, r10, r11, lr}
.Ltmp0:
	.cfi_def_cfa_offset 16
.Ltmp1:
	.cfi_offset lr, -4
.Ltmp2:
	.cfi_offset r11, -8
.Ltmp3:
	.cfi_offset r10, -12
.Ltmp4:
	.cfi_offset r4, -16
	.setfp	r11, sp, #8
	add	r11, sp, #8
.Ltmp5:
	.cfi_def_cfa r11, 8
	@DEBUG_VALUE: __cxx_global_array_dtor: <- %R0
.Ltmp6:
	.loc	7 160 37 prologue_end   @ /usr/bin/../lib/gcc/arm-linux-gnueabihf/6.3.0/../../../../include/c++/6.3.0/bits/stl_vector.h:160:37
	movw	r4, :lower16:grain_generators
	movt	r4, :upper16:grain_generators
	ldr	r0, [r4, #760]
.Ltmp7:
	@DEBUG_VALUE: _M_deallocate:__p <- %R0
	@DEBUG_VALUE: deallocate:__p <- %R0
	@DEBUG_VALUE: deallocate:__p <- %R0
	.loc	7 177 6                 @ /usr/bin/../lib/gcc/arm-linux-gnueabihf/6.3.0/../../../../include/c++/6.3.0/bits/stl_vector.h:177:6
	cmp	r0, #0
	beq	.LBB0_2
.Ltmp8:
@ BB#1:
	@DEBUG_VALUE: deallocate:__p <- %R0
	@DEBUG_VALUE: deallocate:__p <- %R0
	@DEBUG_VALUE: _M_deallocate:__p <- %R0
	.loc	10 110 9                @ /usr/bin/../lib/gcc/arm-linux-gnueabihf/6.3.0/../../../../include/c++/6.3.0/ext/new_allocator.h:110:9
	bl	_ZdlPv
.Ltmp9:
.LBB0_2:                                @ %_ZN14GrainGeneratorD2Ev.exit
	.loc	7 160 37                @ /usr/bin/../lib/gcc/arm-linux-gnueabihf/6.3.0/../../../../include/c++/6.3.0/bits/stl_vector.h:160:37
	ldr	r0, [r4, #720]
.Ltmp10:
	.loc	7 177 6                 @ /usr/bin/../lib/gcc/arm-linux-gnueabihf/6.3.0/../../../../include/c++/6.3.0/bits/stl_vector.h:177:6
	cmp	r0, #0
	beq	.LBB0_4
@ BB#3:
.Ltmp11:
	.loc	10 110 9                @ /usr/bin/../lib/gcc/arm-linux-gnueabihf/6.3.0/../../../../include/c++/6.3.0/ext/new_allocator.h:110:9
	bl	_ZdlPv
.Ltmp12:
.LBB0_4:                                @ %_ZN14GrainGeneratorD2Ev.exit.1
	.loc	7 160 37                @ /usr/bin/../lib/gcc/arm-linux-gnueabihf/6.3.0/../../../../include/c++/6.3.0/bits/stl_vector.h:160:37
	ldr	r0, [r4, #680]
.Ltmp13:
	.loc	7 177 6                 @ /usr/bin/../lib/gcc/arm-linux-gnueabihf/6.3.0/../../../../include/c++/6.3.0/bits/stl_vector.h:177:6
	cmp	r0, #0
	beq	.LBB0_6
@ BB#5:
.Ltmp14:
	.loc	10 110 9                @ /usr/bin/../lib/gcc/arm-linux-gnueabihf/6.3.0/../../../../include/c++/6.3.0/ext/new_allocator.h:110:9
	bl	_ZdlPv
.Ltmp15:
.LBB0_6:                                @ %_ZN14GrainGeneratorD2Ev.exit.2
	.loc	7 160 37                @ /usr/bin/../lib/gcc/arm-linux-gnueabihf/6.3.0/../../../../include/c++/6.3.0/bits/stl_vector.h:160:37
	ldr	r0, [r4, #640]
.Ltmp16:
	.loc	7 177 6                 @ /usr/bin/../lib/gcc/arm-linux-gnueabihf/6.3.0/../../../../include/c++/6.3.0/bits/stl_vector.h:177:6
	cmp	r0, #0
	beq	.LBB0_8
@ BB#7:
.Ltmp17:
	.loc	10 110 9                @ /usr/bin/../lib/gcc/arm-linux-gnueabihf/6.3.0/../../../../include/c++/6.3.0/ext/new_allocator.h:110:9
	bl	_ZdlPv
.Ltmp18:
.LBB0_8:                                @ %_ZN14GrainGeneratorD2Ev.exit.3
	.loc	7 160 37                @ /usr/bin/../lib/gcc/arm-linux-gnueabihf/6.3.0/../../../../include/c++/6.3.0/bits/stl_vector.h:160:37
	ldr	r0, [r4, #600]
.Ltmp19:
	.loc	7 177 6                 @ /usr/bin/../lib/gcc/arm-linux-gnueabihf/6.3.0/../../../../include/c++/6.3.0/bits/stl_vector.h:177:6
	cmp	r0, #0
	beq	.LBB0_10
@ BB#9:
.Ltmp20:
	.loc	10 110 9                @ /usr/bin/../lib/gcc/arm-linux-gnueabihf/6.3.0/../../../../include/c++/6.3.0/ext/new_allocator.h:110:9
	bl	_ZdlPv
.Ltmp21:
.LBB0_10:                               @ %_ZN14GrainGeneratorD2Ev.exit.4
	.loc	7 160 37                @ /usr/bin/../lib/gcc/arm-linux-gnueabihf/6.3.0/../../../../include/c++/6.3.0/bits/stl_vector.h:160:37
	ldr	r0, [r4, #560]
.Ltmp22:
	.loc	7 177 6                 @ /usr/bin/../lib/gcc/arm-linux-gnueabihf/6.3.0/../../../../include/c++/6.3.0/bits/stl_vector.h:177:6
	cmp	r0, #0
	beq	.LBB0_12
@ BB#11:
.Ltmp23:
	.loc	10 110 9                @ /usr/bin/../lib/gcc/arm-linux-gnueabihf/6.3.0/../../../../include/c++/6.3.0/ext/new_allocator.h:110:9
	bl	_ZdlPv
.Ltmp24:
.LBB0_12:                               @ %_ZN14GrainGeneratorD2Ev.exit.5
	.loc	7 160 37                @ /usr/bin/../lib/gcc/arm-linux-gnueabihf/6.3.0/../../../../include/c++/6.3.0/bits/stl_vector.h:160:37
	ldr	r0, [r4, #520]
.Ltmp25:
	.loc	7 177 6                 @ /usr/bin/../lib/gcc/arm-linux-gnueabihf/6.3.0/../../../../include/c++/6.3.0/bits/stl_vector.h:177:6
	cmp	r0, #0
	beq	.LBB0_14
@ BB#13:
.Ltmp26:
	.loc	10 110 9                @ /usr/bin/../lib/gcc/arm-linux-gnueabihf/6.3.0/../../../../include/c++/6.3.0/ext/new_allocator.h:110:9
	bl	_ZdlPv
.Ltmp27:
.LBB0_14:                               @ %_ZN14GrainGeneratorD2Ev.exit.6
	.loc	7 160 37                @ /usr/bin/../lib/gcc/arm-linux-gnueabihf/6.3.0/../../../../include/c++/6.3.0/bits/stl_vector.h:160:37
	ldr	r0, [r4, #480]
.Ltmp28:
	.loc	7 177 6                 @ /usr/bin/../lib/gcc/arm-linux-gnueabihf/6.3.0/../../../../include/c++/6.3.0/bits/stl_vector.h:177:6
	cmp	r0, #0
	beq	.LBB0_16
@ BB#15:
.Ltmp29:
	.loc	10 110 9                @ /usr/bin/../lib/gcc/arm-linux-gnueabihf/6.3.0/../../../../include/c++/6.3.0/ext/new_allocator.h:110:9
	bl	_ZdlPv
.Ltmp30:
.LBB0_16:                               @ %_ZN14GrainGeneratorD2Ev.exit.7
	.loc	7 160 37                @ /usr/bin/../lib/gcc/arm-linux-gnueabihf/6.3.0/../../../../include/c++/6.3.0/bits/stl_vector.h:160:37
	ldr	r0, [r4, #440]
.Ltmp31:
	.loc	7 177 6                 @ /usr/bin/../lib/gcc/arm-linux-gnueabihf/6.3.0/../../../../include/c++/6.3.0/bits/stl_vector.h:177:6
	cmp	r0, #0
	beq	.LBB0_18
@ BB#17:
.Ltmp32:
	.loc	10 110 9                @ /usr/bin/../lib/gcc/arm-linux-gnueabihf/6.3.0/../../../../include/c++/6.3.0/ext/new_allocator.h:110:9
	bl	_ZdlPv
.Ltmp33:
.LBB0_18:                               @ %_ZN14GrainGeneratorD2Ev.exit.8
	.loc	7 160 37                @ /usr/bin/../lib/gcc/arm-linux-gnueabihf/6.3.0/../../../../include/c++/6.3.0/bits/stl_vector.h:160:37
	ldr	r0, [r4, #400]
.Ltmp34:
	.loc	7 177 6                 @ /usr/bin/../lib/gcc/arm-linux-gnueabihf/6.3.0/../../../../include/c++/6.3.0/bits/stl_vector.h:177:6
	cmp	r0, #0
	beq	.LBB0_20
@ BB#19:
.Ltmp35:
	.loc	10 110 9                @ /usr/bin/../lib/gcc/arm-linux-gnueabihf/6.3.0/../../../../include/c++/6.3.0/ext/new_allocator.h:110:9
	bl	_ZdlPv
.Ltmp36:
.LBB0_20:                               @ %_ZN14GrainGeneratorD2Ev.exit.9
	.loc	7 160 37                @ /usr/bin/../lib/gcc/arm-linux-gnueabihf/6.3.0/../../../../include/c++/6.3.0/bits/stl_vector.h:160:37
	ldr	r0, [r4, #360]
.Ltmp37:
	.loc	7 177 6                 @ /usr/bin/../lib/gcc/arm-linux-gnueabihf/6.3.0/../../../../include/c++/6.3.0/bits/stl_vector.h:177:6
	cmp	r0, #0
	beq	.LBB0_22
@ BB#21:
.Ltmp38:
	.loc	10 110 9                @ /usr/bin/../lib/gcc/arm-linux-gnueabihf/6.3.0/../../../../include/c++/6.3.0/ext/new_allocator.h:110:9
	bl	_ZdlPv
.Ltmp39:
.LBB0_22:                               @ %_ZN14GrainGeneratorD2Ev.exit.10
	.loc	7 160 37                @ /usr/bin/../lib/gcc/arm-linux-gnueabihf/6.3.0/../../../../include/c++/6.3.0/bits/stl_vector.h:160:37
	ldr	r0, [r4, #320]
.Ltmp40:
	.loc	7 177 6                 @ /usr/bin/../lib/gcc/arm-linux-gnueabihf/6.3.0/../../../../include/c++/6.3.0/bits/stl_vector.h:177:6
	cmp	r0, #0
	beq	.LBB0_24
@ BB#23:
.Ltmp41:
	.loc	10 110 9                @ /usr/bin/../lib/gcc/arm-linux-gnueabihf/6.3.0/../../../../include/c++/6.3.0/ext/new_allocator.h:110:9
	bl	_ZdlPv
.Ltmp42:
.LBB0_24:                               @ %_ZN14GrainGeneratorD2Ev.exit.11
	.loc	7 160 37                @ /usr/bin/../lib/gcc/arm-linux-gnueabihf/6.3.0/../../../../include/c++/6.3.0/bits/stl_vector.h:160:37
	ldr	r0, [r4, #280]
.Ltmp43:
	.loc	7 177 6                 @ /usr/bin/../lib/gcc/arm-linux-gnueabihf/6.3.0/../../../../include/c++/6.3.0/bits/stl_vector.h:177:6
	cmp	r0, #0
	beq	.LBB0_26
@ BB#25:
.Ltmp44:
	.loc	10 110 9                @ /usr/bin/../lib/gcc/arm-linux-gnueabihf/6.3.0/../../../../include/c++/6.3.0/ext/new_allocator.h:110:9
	bl	_ZdlPv
.Ltmp45:
.LBB0_26:                               @ %_ZN14GrainGeneratorD2Ev.exit.12
	.loc	7 160 37                @ /usr/bin/../lib/gcc/arm-linux-gnueabihf/6.3.0/../../../../include/c++/6.3.0/bits/stl_vector.h:160:37
	ldr	r0, [r4, #240]
.Ltmp46:
	.loc	7 177 6                 @ /usr/bin/../lib/gcc/arm-linux-gnueabihf/6.3.0/../../../../include/c++/6.3.0/bits/stl_vector.h:177:6
	cmp	r0, #0
	beq	.LBB0_28
@ BB#27:
.Ltmp47:
	.loc	10 110 9                @ /usr/bin/../lib/gcc/arm-linux-gnueabihf/6.3.0/../../../../include/c++/6.3.0/ext/new_allocator.h:110:9
	bl	_ZdlPv
.Ltmp48:
.LBB0_28:                               @ %_ZN14GrainGeneratorD2Ev.exit.13
	.loc	7 160 37                @ /usr/bin/../lib/gcc/arm-linux-gnueabihf/6.3.0/../../../../include/c++/6.3.0/bits/stl_vector.h:160:37
	ldr	r0, [r4, #200]
.Ltmp49:
	.loc	7 177 6                 @ /usr/bin/../lib/gcc/arm-linux-gnueabihf/6.3.0/../../../../include/c++/6.3.0/bits/stl_vector.h:177:6
	cmp	r0, #0
	beq	.LBB0_30
@ BB#29:
.Ltmp50:
	.loc	10 110 9                @ /usr/bin/../lib/gcc/arm-linux-gnueabihf/6.3.0/../../../../include/c++/6.3.0/ext/new_allocator.h:110:9
	bl	_ZdlPv
.Ltmp51:
.LBB0_30:                               @ %_ZN14GrainGeneratorD2Ev.exit.14
	.loc	7 160 37                @ /usr/bin/../lib/gcc/arm-linux-gnueabihf/6.3.0/../../../../include/c++/6.3.0/bits/stl_vector.h:160:37
	ldr	r0, [r4, #160]
.Ltmp52:
	.loc	7 177 6                 @ /usr/bin/../lib/gcc/arm-linux-gnueabihf/6.3.0/../../../../include/c++/6.3.0/bits/stl_vector.h:177:6
	cmp	r0, #0
	beq	.LBB0_32
@ BB#31:
.Ltmp53:
	.loc	10 110 9                @ /usr/bin/../lib/gcc/arm-linux-gnueabihf/6.3.0/../../../../include/c++/6.3.0/ext/new_allocator.h:110:9
	bl	_ZdlPv
.Ltmp54:
.LBB0_32:                               @ %_ZN14GrainGeneratorD2Ev.exit.15
	.loc	7 160 37                @ /usr/bin/../lib/gcc/arm-linux-gnueabihf/6.3.0/../../../../include/c++/6.3.0/bits/stl_vector.h:160:37
	ldr	r0, [r4, #120]
.Ltmp55:
	.loc	7 177 6                 @ /usr/bin/../lib/gcc/arm-linux-gnueabihf/6.3.0/../../../../include/c++/6.3.0/bits/stl_vector.h:177:6
	cmp	r0, #0
	beq	.LBB0_34
@ BB#33:
.Ltmp56:
	.loc	10 110 9                @ /usr/bin/../lib/gcc/arm-linux-gnueabihf/6.3.0/../../../../include/c++/6.3.0/ext/new_allocator.h:110:9
	bl	_ZdlPv
.Ltmp57:
.LBB0_34:                               @ %_ZN14GrainGeneratorD2Ev.exit.16
	.loc	7 160 37                @ /usr/bin/../lib/gcc/arm-linux-gnueabihf/6.3.0/../../../../include/c++/6.3.0/bits/stl_vector.h:160:37
	ldr	r0, [r4, #80]
.Ltmp58:
	.loc	7 177 6                 @ /usr/bin/../lib/gcc/arm-linux-gnueabihf/6.3.0/../../../../include/c++/6.3.0/bits/stl_vector.h:177:6
	cmp	r0, #0
	beq	.LBB0_36
@ BB#35:
.Ltmp59:
	.loc	10 110 9                @ /usr/bin/../lib/gcc/arm-linux-gnueabihf/6.3.0/../../../../include/c++/6.3.0/ext/new_allocator.h:110:9
	bl	_ZdlPv
.Ltmp60:
.LBB0_36:                               @ %_ZN14GrainGeneratorD2Ev.exit.17
	.loc	7 160 37                @ /usr/bin/../lib/gcc/arm-linux-gnueabihf/6.3.0/../../../../include/c++/6.3.0/bits/stl_vector.h:160:37
	ldr	r0, [r4, #40]
.Ltmp61:
	.loc	7 177 6                 @ /usr/bin/../lib/gcc/arm-linux-gnueabihf/6.3.0/../../../../include/c++/6.3.0/bits/stl_vector.h:177:6
	cmp	r0, #0
	beq	.LBB0_38
@ BB#37:
.Ltmp62:
	.loc	10 110 9                @ /usr/bin/../lib/gcc/arm-linux-gnueabihf/6.3.0/../../../../include/c++/6.3.0/ext/new_allocator.h:110:9
	bl	_ZdlPv
.Ltmp63:
.LBB0_38:                               @ %_ZN14GrainGeneratorD2Ev.exit.18
	.loc	7 160 37                @ /usr/bin/../lib/gcc/arm-linux-gnueabihf/6.3.0/../../../../include/c++/6.3.0/bits/stl_vector.h:160:37
	ldr	r0, [r4]
.Ltmp64:
	.loc	7 177 6                 @ /usr/bin/../lib/gcc/arm-linux-gnueabihf/6.3.0/../../../../include/c++/6.3.0/bits/stl_vector.h:177:6
	cmp	r0, #0
.Ltmp65:
	.loc	3 30 1                  @ /root/Bela/projects/granular_delay/render.cpp:30:1
	popeq	{r4, r10, r11, pc}
.Ltmp66:
	.loc	10 110 9                @ /usr/bin/../lib/gcc/arm-linux-gnueabihf/6.3.0/../../../../include/c++/6.3.0/ext/new_allocator.h:110:9
	pop	{r4, r10, r11, lr}
	b	_ZdlPv
.Ltmp67:
.Lfunc_end0:
	.size	__cxx_global_array_dtor, .Lfunc_end0-__cxx_global_array_dtor
	.cfi_endproc
	.fnend

	.section	.text._ZNSt6vectorIfSaIfEED2Ev,"axG",%progbits,_ZNSt6vectorIfSaIfEED2Ev,comdat
	.weak	_ZNSt6vectorIfSaIfEED2Ev
	.p2align	2
	.type	_ZNSt6vectorIfSaIfEED2Ev,%function
_ZNSt6vectorIfSaIfEED2Ev:               @ @_ZNSt6vectorIfSaIfEED2Ev
.Lfunc_begin1:
	.loc	7 426 0                 @ /usr/bin/../lib/gcc/arm-linux-gnueabihf/6.3.0/../../../../include/c++/6.3.0/bits/stl_vector.h:426:0
	.fnstart
	.cfi_startproc
@ BB#0:
	.save	{r4, r10, r11, lr}
	push	{r4, r10, r11, lr}
.Ltmp68:
	.cfi_def_cfa_offset 16
.Ltmp69:
	.cfi_offset lr, -4
.Ltmp70:
	.cfi_offset r11, -8
.Ltmp71:
	.cfi_offset r10, -12
.Ltmp72:
	.cfi_offset r4, -16
	.setfp	r11, sp, #8
	add	r11, sp, #8
.Ltmp73:
	.cfi_def_cfa r11, 8
	@DEBUG_VALUE: ~vector:this <- %R0
	mov	r4, r0
.Ltmp74:
	@DEBUG_VALUE: ~vector:this <- %R4
	.loc	7 160 37 prologue_end   @ /usr/bin/../lib/gcc/arm-linux-gnueabihf/6.3.0/../../../../include/c++/6.3.0/bits/stl_vector.h:160:37
	ldr	r0, [r4]
.Ltmp75:
	@DEBUG_VALUE: _M_deallocate:__p <- %R0
	@DEBUG_VALUE: deallocate:__p <- %R0
	@DEBUG_VALUE: deallocate:__p <- %R0
	.loc	7 177 6                 @ /usr/bin/../lib/gcc/arm-linux-gnueabihf/6.3.0/../../../../include/c++/6.3.0/bits/stl_vector.h:177:6
	cmp	r0, #0
	beq	.LBB1_2
.Ltmp76:
@ BB#1:
	@DEBUG_VALUE: deallocate:__p <- %R0
	@DEBUG_VALUE: deallocate:__p <- %R0
	@DEBUG_VALUE: _M_deallocate:__p <- %R0
	@DEBUG_VALUE: ~vector:this <- %R4
	.loc	10 110 9                @ /usr/bin/../lib/gcc/arm-linux-gnueabihf/6.3.0/../../../../include/c++/6.3.0/ext/new_allocator.h:110:9
	bl	_ZdlPv
.Ltmp77:
.LBB1_2:                                @ %_ZNSt12_Vector_baseIfSaIfEED2Ev.exit
	@DEBUG_VALUE: ~vector:this <- %R4
	.loc	7 427 33 discriminator 1 @ /usr/bin/../lib/gcc/arm-linux-gnueabihf/6.3.0/../../../../include/c++/6.3.0/bits/stl_vector.h:427:33
	mov	r0, r4
	pop	{r4, r10, r11, pc}
.Ltmp78:
.Lfunc_end1:
	.size	_ZNSt6vectorIfSaIfEED2Ev, .Lfunc_end1-_ZNSt6vectorIfSaIfEED2Ev
	.cfi_endproc
	.fnend

	.text
	.globl	setup
	.p2align	3
	.type	setup,%function
setup:                                  @ @setup
.Lfunc_begin2:
	.loc	3 54 0                  @ /root/Bela/projects/granular_delay/render.cpp:54:0
	.fnstart
	.cfi_startproc
@ BB#0:
	.save	{r4, r5, r6, r7, r8, r9, r10, r11, lr}
	push	{r4, r5, r6, r7, r8, r9, r10, r11, lr}
.Ltmp92:
	.cfi_def_cfa_offset 36
.Ltmp93:
	.cfi_offset lr, -4
.Ltmp94:
	.cfi_offset r11, -8
.Ltmp95:
	.cfi_offset r10, -12
.Ltmp96:
	.cfi_offset r9, -16
.Ltmp97:
	.cfi_offset r8, -20
.Ltmp98:
	.cfi_offset r7, -24
.Ltmp99:
	.cfi_offset r6, -28
.Ltmp100:
	.cfi_offset r5, -32
.Ltmp101:
	.cfi_offset r4, -36
	.setfp	r11, sp, #28
	add	r11, sp, #28
.Ltmp102:
	.cfi_def_cfa r11, 8
	.pad	#100
	sub	sp, sp, #100
	@DEBUG_VALUE: setup:context <- %R0
	@DEBUG_VALUE: setup:userData <- %R1
.Ltmp103:
	.loc	3 56 20 prologue_end discriminator 1 @ /root/Bela/projects/granular_delay/render.cpp:56:20
	movw	r4, :lower16:.L_MergedGlobals
	mov	r6, r0
.Ltmp104:
	@DEBUG_VALUE: i <- 0
	@DEBUG_VALUE: setup:context <- %R6
	movt	r4, :upper16:.L_MergedGlobals
	ldr	r0, [r4, #12]
	.loc	3 56 5 is_stmt 0 discriminator 1 @ /root/Bela/projects/granular_delay/render.cpp:56:5
	cmp	r0, #0
	ble	.LBB2_11
.Ltmp105:
@ BB#1:                                 @ %.lr.ph
	@DEBUG_VALUE: setup:context <- %R6
	@DEBUG_VALUE: setup:userData <- %R1
	add	r0, sp, #60
	str	r6, [sp, #4]            @ 4-byte Spill
.Ltmp106:
	.loc	3 60 52 is_stmt 1       @ /root/Bela/projects/granular_delay/render.cpp:60:52
	add	r5, r6, #32
	movw	r6, :lower16:grain_generators
.Ltmp107:
	.loc	23 58 8                 @ /root/Bela/projects/granular_delay/./GrainGenerator/GrainGenerator.h:58:8
	add	r8, r0, #12
.Ltmp108:
	.loc	3 60 27                 @ /root/Bela/projects/granular_delay/render.cpp:60:27
	add	r7, r4, #76
	mov	r9, #0
	movt	r6, :upper16:grain_generators
	mov	r10, #0
.Ltmp109:
.LBB2_2:                                @ =>This Inner Loop Header: Depth=1
	.loc	23 58 8                 @ /root/Bela/projects/granular_delay/./GrainGenerator/GrainGenerator.h:58:8
	mov	r0, #1065353216
.Ltmp110:
	.loc	7 87 22                 @ /usr/bin/../lib/gcc/arm-linux-gnueabihf/6.3.0/../../../../include/c++/6.3.0/bits/stl_vector.h:87:22
	str	r9, [sp, #60]
	.loc	7 87 34 is_stmt 0       @ /usr/bin/../lib/gcc/arm-linux-gnueabihf/6.3.0/../../../../include/c++/6.3.0/bits/stl_vector.h:87:34
	str	r9, [sp, #64]
	.loc	7 87 47                 @ /usr/bin/../lib/gcc/arm-linux-gnueabihf/6.3.0/../../../../include/c++/6.3.0/bits/stl_vector.h:87:47
	str	r9, [sp, #68]
.Ltmp111:
	.loc	23 58 8 is_stmt 1       @ /root/Bela/projects/granular_delay/./GrainGenerator/GrainGenerator.h:58:8
	str	r0, [sp, #72]
	.loc	23 62 8                 @ /root/Bela/projects/granular_delay/./GrainGenerator/GrainGenerator.h:62:8
	str	r9, [sp, #88]
.Ltmp112:
	.loc	23 23 7                 @ /root/Bela/projects/granular_delay/./GrainGenerator/GrainGenerator.h:23:7
.Ltmp79:
.Ltmp113:
	@DEBUG_VALUE: operator=: <- undef
	@DEBUG_VALUE: GrainGenerator:this <- undef
	@DEBUG_VALUE: grain <- undef
	add	r1, sp, #60
	mov	r0, r6
	bl	_ZNSt6vectorIfSaIfEEaSERKS1_
.Ltmp80:
@ BB#3:                                 @   in Loop: Header=BB2_2 Depth=1
	.loc	23 23 7 is_stmt 0 discriminator 1 @ /root/Bela/projects/granular_delay/./GrainGenerator/GrainGenerator.h:23:7
	add	r0, r8, #9
	vld1.32	{d16, d17}, [r8]
	vld1.8	{d18, d19}, [r0]
	add	r0, r6, #12
	vst1.32	{d16, d17}, [r0]
	add	r0, r6, #21
	vst1.8	{d18, d19}, [r0]
.Ltmp114:
	.loc	3 60 52 is_stmt 1       @ /root/Bela/projects/granular_delay/render.cpp:60:52
	vldr	s0, [r5]
	.loc	3 60 43 is_stmt 0       @ /root/Bela/projects/granular_delay/render.cpp:60:43
	vcvt.s32.f32	d0, d0
	.loc	3 60 27                 @ /root/Bela/projects/granular_delay/render.cpp:60:27
.Ltmp81:
	.loc	3 60 43                 @ /root/Bela/projects/granular_delay/render.cpp:60:43
	vmov	r2, s0
	.loc	3 60 27                 @ /root/Bela/projects/granular_delay/render.cpp:60:27
	mov	r0, r6
	mov	r1, r7
	mov	r3, #0
	str	r9, [sp]
	bl	_ZN14GrainGenerator5setupERKNSt7__cxx1112basic_stringIcSt11char_traitsIcESaIcEEEibb
.Ltmp82:
.Ltmp115:
@ BB#4:                                 @   in Loop: Header=BB2_2 Depth=1
	mov	r4, #0
	.loc	3 60 6 discriminator 1  @ /root/Bela/projects/granular_delay/render.cpp:60:6
	cmp	r0, #0
	bne	.LBB2_6
.Ltmp116:
@ BB#5:                                 @   in Loop: Header=BB2_2 Depth=1
	.loc	3 56 20 is_stmt 1 discriminator 1 @ /root/Bela/projects/granular_delay/render.cpp:56:20
	movw	r0, :lower16:.L_MergedGlobals
	mov	r4, #1
	movt	r0, :upper16:.L_MergedGlobals
.Ltmp117:
	.loc	26 136 28               @ /usr/bin/../lib/gcc/arm-linux-gnueabihf/6.3.0/../../../../include/c++/6.3.0/bits/basic_string.h:136:28
	ldr	r1, [r0, #76]
.Ltmp118:
	.loc	3 61 7                  @ /root/Bela/projects/granular_delay/render.cpp:61:7
.Ltmp83:
	movw	r0, :lower16:.L.str.5
	movt	r0, :upper16:.L.str.5
	bl	rt_printf
.Ltmp84:
.Ltmp119:
.LBB2_6:                                @   in Loop: Header=BB2_2 Depth=1
	.loc	7 160 37                @ /usr/bin/../lib/gcc/arm-linux-gnueabihf/6.3.0/../../../../include/c++/6.3.0/bits/stl_vector.h:160:37
	ldr	r0, [sp, #60]
.Ltmp120:
	@DEBUG_VALUE: _M_deallocate:__p <- %R0
	@DEBUG_VALUE: deallocate:__p <- %R0
	@DEBUG_VALUE: deallocate:__p <- %R0
	.loc	7 177 6                 @ /usr/bin/../lib/gcc/arm-linux-gnueabihf/6.3.0/../../../../include/c++/6.3.0/bits/stl_vector.h:177:6
	cmp	r0, #0
	beq	.LBB2_8
.Ltmp121:
@ BB#7:                                 @   in Loop: Header=BB2_2 Depth=1
	@DEBUG_VALUE: deallocate:__p <- %R0
	@DEBUG_VALUE: deallocate:__p <- %R0
	@DEBUG_VALUE: _M_deallocate:__p <- %R0
	.loc	10 110 9                @ /usr/bin/../lib/gcc/arm-linux-gnueabihf/6.3.0/../../../../include/c++/6.3.0/ext/new_allocator.h:110:9
	bl	_ZdlPv
.Ltmp122:
.LBB2_8:                                @ %_ZN14GrainGeneratorD2Ev.exit26
                                        @   in Loop: Header=BB2_2 Depth=1
	mov	r0, #0
	cmp	r4, #0
	bne	.LBB2_22
@ BB#9:                                 @   in Loop: Header=BB2_2 Depth=1
	.loc	3 56 20 discriminator 1 @ /root/Bela/projects/granular_delay/render.cpp:56:20
	movw	r0, :lower16:.L_MergedGlobals
	.loc	3 56 31 is_stmt 0 discriminator 4 @ /root/Bela/projects/granular_delay/render.cpp:56:31
	add	r10, r10, #1
.Ltmp123:
	@DEBUG_VALUE: i <- %R10
	.loc	3 56 20 discriminator 1 @ /root/Bela/projects/granular_delay/render.cpp:56:20
	movt	r0, :upper16:.L_MergedGlobals
	.loc	3 56 19 discriminator 1 @ /root/Bela/projects/granular_delay/render.cpp:56:19
	add	r6, r6, #40
	.loc	3 56 20 discriminator 1 @ /root/Bela/projects/granular_delay/render.cpp:56:20
	ldr	r0, [r0, #12]
	.loc	3 56 5 discriminator 1  @ /root/Bela/projects/granular_delay/render.cpp:56:5
	cmp	r10, r0
	blt	.LBB2_2
.Ltmp124:
@ BB#10:
	@DEBUG_VALUE: i <- %R10
	.loc	3 56 20 discriminator 1 @ /root/Bela/projects/granular_delay/render.cpp:56:20
	movw	r4, :lower16:.L_MergedGlobals
	ldr	r6, [sp, #4]            @ 4-byte Reload
	movt	r4, :upper16:.L_MergedGlobals
	b	.LBB2_12
.Ltmp125:
.LBB2_11:                               @ %.._crit_edge_crit_edge
	@DEBUG_VALUE: setup:context <- %R6
	@DEBUG_VALUE: setup:userData <- %R1
	.loc	3 67 45 is_stmt 1       @ /root/Bela/projects/granular_delay/render.cpp:67:45
	add	r5, r6, #32
.Ltmp126:
.LBB2_12:                               @ %._crit_edge
	.loc	3 66 11                 @ /root/Bela/projects/granular_delay/render.cpp:66:11
	movw	r0, #0
	.loc	3 75 24                 @ /root/Bela/projects/granular_delay/render.cpp:75:24
	vmov.f64	d17, #5.000000e-01
	.loc	3 66 11                 @ /root/Bela/projects/granular_delay/render.cpp:66:11
	movt	r0, #17786
	str	r0, [r4, #24]
	mov	r0, #0
	.loc	3 67 45                 @ /root/Bela/projects/granular_delay/render.cpp:67:45
	vldr	s0, [r5]
	.loc	3 69 38                 @ /root/Bela/projects/granular_delay/render.cpp:69:38
	vldr	s2, .LCPI2_0
	.loc	3 75 26                 @ /root/Bela/projects/granular_delay/render.cpp:75:26
	vcvt.f64.f32	d16, s0
	.loc	3 75 24 is_stmt 0       @ /root/Bela/projects/granular_delay/render.cpp:75:24
	vmul.f64	d16, d16, d17
	.loc	3 75 21                 @ /root/Bela/projects/granular_delay/render.cpp:75:21
	vcvt.u32.f64	s4, d16
	.loc	3 67 34 is_stmt 1       @ /root/Bela/projects/granular_delay/render.cpp:67:34
	vmov.f32	d17, #4.000000e+00
	.loc	3 75 21                 @ /root/Bela/projects/granular_delay/render.cpp:75:21
	vmov	r2, s4
.Ltmp127:
	@DEBUG_VALUE: resize:__new_size <- %R2
	.loc	3 69 38                 @ /root/Bela/projects/granular_delay/render.cpp:69:38
	vmul.f32	d16, d0, d1
	.loc	3 67 34                 @ /root/Bela/projects/granular_delay/render.cpp:67:34
	vmul.f32	d3, d0, d17
	.loc	3 67 14 is_stmt 0       @ /root/Bela/projects/granular_delay/render.cpp:67:14
	vstr	s6, [r4, #20]
	.loc	3 69 23 is_stmt 1       @ /root/Bela/projects/granular_delay/render.cpp:69:23
	vldr	s2, [r4, #28]
	.loc	3 69 44 is_stmt 0       @ /root/Bela/projects/granular_delay/render.cpp:69:44
	vmul.f32	d1, d16, d1
	.loc	3 69 21                 @ /root/Bela/projects/granular_delay/render.cpp:69:21
	vstr	s2, [r4, #32]
	.loc	3 71 10 is_stmt 1       @ /root/Bela/projects/granular_delay/render.cpp:71:10
	strb	r0, [r4]
.Ltmp128:
	.loc	7 656 66                @ /usr/bin/../lib/gcc/arm-linux-gnueabihf/6.3.0/../../../../include/c++/6.3.0/bits/stl_vector.h:656:66
	ldrd	r0, r1, [r4, #64]
	.loc	7 656 50 is_stmt 0      @ /usr/bin/../lib/gcc/arm-linux-gnueabihf/6.3.0/../../../../include/c++/6.3.0/bits/stl_vector.h:656:50
	sub	r7, r1, r0
	asr	r3, r7, #2
.Ltmp129:
	.loc	7 676 6 is_stmt 1       @ /usr/bin/../lib/gcc/arm-linux-gnueabihf/6.3.0/../../../../include/c++/6.3.0/bits/stl_vector.h:676:6
	cmp	r2, r7, asr #2
	bls	.LBB2_14
.Ltmp130:
@ BB#13:
	@DEBUG_VALUE: resize:__new_size <- %R2
	.loc	7 677 33                @ /usr/bin/../lib/gcc/arm-linux-gnueabihf/6.3.0/../../../../include/c++/6.3.0/bits/stl_vector.h:677:33
	sub	r1, r2, r3
	.loc	7 677 4 is_stmt 0 discriminator 1 @ /usr/bin/../lib/gcc/arm-linux-gnueabihf/6.3.0/../../../../include/c++/6.3.0/bits/stl_vector.h:677:4
	add	r0, r4, #64
.Ltmp131:
	@DEBUG_VALUE: _M_erase_at_end:this <- %R0
	bl	_ZNSt6vectorIfSaIfEE17_M_default_appendEj
.Ltmp132:
	.loc	7 656 66 is_stmt 1      @ /usr/bin/../lib/gcc/arm-linux-gnueabihf/6.3.0/../../../../include/c++/6.3.0/bits/stl_vector.h:656:66
	ldrd	r0, r1, [r4, #64]
.Ltmp133:
	.loc	3 76 53                 @ /root/Bela/projects/granular_delay/render.cpp:76:53
	vldr	s0, [r5]
	b	.LBB2_15
.LBB2_14:
.Ltmp134:
	@DEBUG_VALUE: resize:__new_size <- %R2
	.loc	7 678 11                @ /usr/bin/../lib/gcc/arm-linux-gnueabihf/6.3.0/../../../../include/c++/6.3.0/bits/stl_vector.h:678:11
	cmp	r2, r3
.Ltmp135:
	.loc	7 679 43                @ /usr/bin/../lib/gcc/arm-linux-gnueabihf/6.3.0/../../../../include/c++/6.3.0/bits/stl_vector.h:679:43
	addlo	r1, r0, r2, lsl #2
.Ltmp136:
	@DEBUG_VALUE: _M_erase_at_end:__pos <- %R1
	.loc	7 1437 26               @ /usr/bin/../lib/gcc/arm-linux-gnueabihf/6.3.0/../../../../include/c++/6.3.0/bits/stl_vector.h:1437:26
	strlo	r1, [r4, #68]
.Ltmp137:
.LBB2_15:                               @ %_ZNSt6vectorIfSaIfEE6resizeEj.exit
	.loc	3 76 44                 @ /root/Bela/projects/granular_delay/render.cpp:76:44
	vcvt.f64.f32	d16, s0
.Ltmp138:
	.loc	7 656 50                @ /usr/bin/../lib/gcc/arm-linux-gnueabihf/6.3.0/../../../../include/c++/6.3.0/bits/stl_vector.h:656:50
	sub	r1, r1, r0
.Ltmp139:
	.loc	3 76 42                 @ /root/Bela/projects/granular_delay/render.cpp:76:42
	vldr	d17, .LCPI2_1
	vmul.f64	d16, d16, d17
	.loc	3 76 37 is_stmt 0       @ /root/Bela/projects/granular_delay/render.cpp:76:37
	vcvt.s32.f64	s0, d16
	.loc	3 76 17                 @ /root/Bela/projects/granular_delay/render.cpp:76:17
	ldr	r2, [r4, #48]
	.loc	3 76 37                 @ /root/Bela/projects/granular_delay/render.cpp:76:37
	vmov	r0, s0
	.loc	3 76 30                 @ /root/Bela/projects/granular_delay/render.cpp:76:30
	sub	r0, r2, r0
	.loc	3 76 71                 @ /root/Bela/projects/granular_delay/render.cpp:76:71
	add	r0, r0, r1, asr #2
.Ltmp140:
	.loc	7 656 50 is_stmt 1      @ /usr/bin/../lib/gcc/arm-linux-gnueabihf/6.3.0/../../../../include/c++/6.3.0/bits/stl_vector.h:656:50
	asr	r1, r1, #2
.Ltmp141:
	.loc	3 76 94                 @ /root/Bela/projects/granular_delay/render.cpp:76:94
	bl	__aeabi_uidivmod
	.loc	3 76 14 is_stmt 0       @ /root/Bela/projects/granular_delay/render.cpp:76:14
	str	r1, [r4, #44]
	.loc	3 79 12 is_stmt 1       @ /root/Bela/projects/granular_delay/render.cpp:79:12
	add	r4, r6, #92
.Ltmp142:
	@DEBUG_VALUE: basic_string:__s <- %R4
	@DEBUG_VALUE: length:__s <- %R4
	@DEBUG_VALUE: _M_construct<const char *>:__beg <- %R4
	@DEBUG_VALUE: _M_construct_aux<const char *>:__beg <- %R4
	@DEBUG_VALUE: _M_construct<const char *>:__beg <- %R4
	@DEBUG_VALUE: _S_copy_chars:__k1 <- %R4
	@DEBUG_VALUE: _S_copy:__s <- %R4
	@DEBUG_VALUE: assign:__c2 <- %R4
	add	r0, sp, #36
.Ltmp143:
	@DEBUG_VALUE: _M_construct<const char *>:this <- %R0
	@DEBUG_VALUE: _M_construct_aux<const char *>:this <- %R0
	@DEBUG_VALUE: _M_construct<const char *>:this <- %R0
	@DEBUG_VALUE: _M_local_data:this <- %R0
	.loc	26 142 51               @ /usr/bin/../lib/gcc/arm-linux-gnueabihf/6.3.0/../../../../include/c++/6.3.0/bits/basic_string.h:142:51
	add	r7, r0, #8
.Ltmp144:
	.loc	27 267 16               @ /usr/bin/../lib/gcc/arm-linux-gnueabihf/6.3.0/../../../../include/c++/6.3.0/bits/char_traits.h:267:16
	mov	r0, r4
.Ltmp145:
	.loc	26 110 25               @ /usr/bin/../lib/gcc/arm-linux-gnueabihf/6.3.0/../../../../include/c++/6.3.0/bits/basic_string.h:110:25
	str	r7, [sp, #36]
.Ltmp146:
	.loc	27 267 16               @ /usr/bin/../lib/gcc/arm-linux-gnueabihf/6.3.0/../../../../include/c++/6.3.0/bits/char_traits.h:267:16
	bl	strlen
	mov	r5, r0
.Ltmp147:
	@DEBUG_VALUE: _M_construct<const char *>:__dnew <- %R5
	@DEBUG_VALUE: _S_copy:__n <- %R5
	.file	50 "/usr/bin/../lib/gcc/arm-linux-gnueabihf/6.3.0/../../../../include/c++/6.3.0/bits" "basic_string.tcc"
	.loc	50 217 6                @ /usr/bin/../lib/gcc/arm-linux-gnueabihf/6.3.0/../../../../include/c++/6.3.0/bits/basic_string.tcc:217:6
	cmp	r5, #15
	.loc	50 215 12               @ /usr/bin/../lib/gcc/arm-linux-gnueabihf/6.3.0/../../../../include/c++/6.3.0/bits/basic_string.tcc:215:12
	str	r5, [sp, #60]
	bls	.LBB2_18
.Ltmp148:
@ BB#16:                                @ %.noexc8.i31
	@DEBUG_VALUE: _S_copy:__n <- %R5
	@DEBUG_VALUE: _M_construct<const char *>:__dnew <- %R5
	@DEBUG_VALUE: assign:__c2 <- %R4
	@DEBUG_VALUE: _S_copy:__s <- %R4
	@DEBUG_VALUE: _S_copy_chars:__k1 <- %R4
	@DEBUG_VALUE: _M_construct<const char *>:__beg <- %R4
	@DEBUG_VALUE: _M_construct_aux<const char *>:__beg <- %R4
	@DEBUG_VALUE: _M_construct<const char *>:__beg <- %R4
	@DEBUG_VALUE: length:__s <- %R4
	@DEBUG_VALUE: basic_string:__s <- %R4
	.loc	50 219 14               @ /usr/bin/../lib/gcc/arm-linux-gnueabihf/6.3.0/../../../../include/c++/6.3.0/bits/basic_string.tcc:219:14
.Ltmp86:
	add	r0, sp, #36
	add	r1, sp, #60
.Ltmp149:
	@DEBUG_VALUE: _M_construct<const char *>:__dnew <- [%R1+0]
	mov	r2, #0
	bl	_ZNSt7__cxx1112basic_stringIcSt11char_traitsIcESaIcEE9_M_createERjj
.Ltmp150:
.Ltmp87:
.Ltmp151:
@ BB#17:                                @ %.noexc33
	@DEBUG_VALUE: _S_copy:__n <- %R5
	@DEBUG_VALUE: assign:__c2 <- %R4
	@DEBUG_VALUE: _S_copy:__s <- %R4
	@DEBUG_VALUE: _S_copy_chars:__k1 <- %R4
	@DEBUG_VALUE: _M_construct<const char *>:__beg <- %R4
	@DEBUG_VALUE: _M_construct_aux<const char *>:__beg <- %R4
	@DEBUG_VALUE: _M_construct<const char *>:__beg <- %R4
	@DEBUG_VALUE: length:__s <- %R4
	@DEBUG_VALUE: basic_string:__s <- %R4
	@DEBUG_VALUE: _M_data:__p <- %R0
	.loc	50 220 18               @ /usr/bin/../lib/gcc/arm-linux-gnueabihf/6.3.0/../../../../include/c++/6.3.0/bits/basic_string.tcc:220:18
	ldr	r1, [sp, #60]
.Ltmp152:
	@DEBUG_VALUE: _M_capacity:__capacity <- %R1
	@DEBUG_VALUE: _M_construct<const char *>:__dnew <- %R1
	.loc	26 128 26               @ /usr/bin/../lib/gcc/arm-linux-gnueabihf/6.3.0/../../../../include/c++/6.3.0/bits/basic_string.h:128:26
	str	r0, [sp, #36]
.Ltmp153:
	.loc	26 160 31               @ /usr/bin/../lib/gcc/arm-linux-gnueabihf/6.3.0/../../../../include/c++/6.3.0/bits/basic_string.h:160:31
	str	r1, [sp, #44]
	b	.LBB2_19
.Ltmp154:
.LBB2_18:                               @ %._crit_edge.i.i.i.i30
	@DEBUG_VALUE: _S_copy:__n <- %R5
	@DEBUG_VALUE: _M_construct<const char *>:__dnew <- %R5
	@DEBUG_VALUE: assign:__c2 <- %R4
	@DEBUG_VALUE: _S_copy:__s <- %R4
	@DEBUG_VALUE: _S_copy_chars:__k1 <- %R4
	@DEBUG_VALUE: _M_construct<const char *>:__beg <- %R4
	@DEBUG_VALUE: _M_construct_aux<const char *>:__beg <- %R4
	@DEBUG_VALUE: _M_construct<const char *>:__beg <- %R4
	@DEBUG_VALUE: length:__s <- %R4
	@DEBUG_VALUE: basic_string:__s <- %R4
	.loc	26 136 28               @ /usr/bin/../lib/gcc/arm-linux-gnueabihf/6.3.0/../../../../include/c++/6.3.0/bits/basic_string.h:136:28
	mov	r0, r7
.Ltmp155:
.LBB2_19:
	@DEBUG_VALUE: _S_copy:__n <- %R5
	@DEBUG_VALUE: assign:__c2 <- %R4
	@DEBUG_VALUE: _S_copy:__s <- %R4
	@DEBUG_VALUE: _S_copy_chars:__k1 <- %R4
	@DEBUG_VALUE: _M_construct<const char *>:__beg <- %R4
	@DEBUG_VALUE: _M_construct_aux<const char *>:__beg <- %R4
	@DEBUG_VALUE: _M_construct<const char *>:__beg <- %R4
	@DEBUG_VALUE: length:__s <- %R4
	@DEBUG_VALUE: basic_string:__s <- %R4
	.loc	26 297 6                @ /usr/bin/../lib/gcc/arm-linux-gnueabihf/6.3.0/../../../../include/c++/6.3.0/bits/basic_string.h:297:6
	cmp	r5, #0
	beq	.LBB2_24
.Ltmp156:
@ BB#20:
	@DEBUG_VALUE: _S_copy:__n <- %R5
	@DEBUG_VALUE: assign:__c2 <- %R4
	@DEBUG_VALUE: _S_copy:__s <- %R4
	@DEBUG_VALUE: _S_copy_chars:__k1 <- %R4
	@DEBUG_VALUE: _M_construct<const char *>:__beg <- %R4
	@DEBUG_VALUE: _M_construct_aux<const char *>:__beg <- %R4
	@DEBUG_VALUE: _M_construct<const char *>:__beg <- %R4
	@DEBUG_VALUE: length:__s <- %R4
	@DEBUG_VALUE: basic_string:__s <- %R4
	cmp	r5, #1
	bne	.LBB2_23
.Ltmp157:
@ BB#21:
	@DEBUG_VALUE: _S_copy:__n <- %R5
	@DEBUG_VALUE: assign:__c2 <- %R4
	@DEBUG_VALUE: _S_copy:__s <- %R4
	@DEBUG_VALUE: _S_copy_chars:__k1 <- %R4
	@DEBUG_VALUE: _M_construct<const char *>:__beg <- %R4
	@DEBUG_VALUE: _M_construct_aux<const char *>:__beg <- %R4
	@DEBUG_VALUE: _M_construct<const char *>:__beg <- %R4
	@DEBUG_VALUE: length:__s <- %R4
	@DEBUG_VALUE: basic_string:__s <- %R4
	.loc	27 243 16               @ /usr/bin/../lib/gcc/arm-linux-gnueabihf/6.3.0/../../../../include/c++/6.3.0/bits/char_traits.h:243:16
	ldrb	r1, [r4]
.Ltmp158:
	@DEBUG_VALUE: _S_copy_chars:__p <- %R0
	.loc	27 243 14 is_stmt 0     @ /usr/bin/../lib/gcc/arm-linux-gnueabihf/6.3.0/../../../../include/c++/6.3.0/bits/char_traits.h:243:14
	strb	r1, [r0]
	b	.LBB2_24
.Ltmp159:
.LBB2_22:                               @ %.loopexit
	.loc	3 83 1 is_stmt 1 discriminator 3 @ /root/Bela/projects/granular_delay/render.cpp:83:1
	sub	sp, r11, #28
	pop	{r4, r5, r6, r7, r8, r9, r10, r11, pc}
.LBB2_23:
.Ltmp160:
	@DEBUG_VALUE: _S_copy:__n <- %R5
	@DEBUG_VALUE: assign:__c2 <- %R4
	@DEBUG_VALUE: _S_copy:__s <- %R4
	@DEBUG_VALUE: _S_copy_chars:__k1 <- %R4
	@DEBUG_VALUE: _M_construct<const char *>:__beg <- %R4
	@DEBUG_VALUE: _M_construct_aux<const char *>:__beg <- %R4
	@DEBUG_VALUE: _M_construct<const char *>:__beg <- %R4
	@DEBUG_VALUE: length:__s <- %R4
	@DEBUG_VALUE: basic_string:__s <- %R4
	.loc	27 290 33               @ /usr/bin/../lib/gcc/arm-linux-gnueabihf/6.3.0/../../../../include/c++/6.3.0/bits/char_traits.h:290:33
	mov	r1, r4
	mov	r2, r5
	bl	memcpy
.Ltmp161:
.LBB2_24:                               @ %._crit_edge.i.i.i.i
	@DEBUG_VALUE: _S_copy:__n <- %R5
	@DEBUG_VALUE: assign:__c2 <- %R4
	@DEBUG_VALUE: _S_copy:__s <- %R4
	@DEBUG_VALUE: _S_copy_chars:__k1 <- %R4
	@DEBUG_VALUE: _M_construct<const char *>:__beg <- %R4
	@DEBUG_VALUE: _M_construct_aux<const char *>:__beg <- %R4
	@DEBUG_VALUE: _M_construct<const char *>:__beg <- %R4
	@DEBUG_VALUE: length:__s <- %R4
	@DEBUG_VALUE: basic_string:__s <- %R4
	.loc	50 232 16               @ /usr/bin/../lib/gcc/arm-linux-gnueabihf/6.3.0/../../../../include/c++/6.3.0/bits/basic_string.tcc:232:16
	ldr	r0, [sp, #60]
.Ltmp162:
	@DEBUG_VALUE: _M_set_length:__n <- %R0
	@DEBUG_VALUE: _M_length:__length <- %R0
	@DEBUG_VALUE: _M_construct<const char *>:__dnew <- %R0
	.loc	27 243 14               @ /usr/bin/../lib/gcc/arm-linux-gnueabihf/6.3.0/../../../../include/c++/6.3.0/bits/char_traits.h:243:14
	mov	r2, #0
.Ltmp163:
	.loc	26 132 26               @ /usr/bin/../lib/gcc/arm-linux-gnueabihf/6.3.0/../../../../include/c++/6.3.0/bits/basic_string.h:132:26
	str	r0, [sp, #40]
	add	r3, sp, #8
.Ltmp164:
	@DEBUG_VALUE: _M_data:this <- %R3
	@DEBUG_VALUE: _M_length:this <- %R3
	@DEBUG_VALUE: _M_set_length:__n <- 3
	@DEBUG_VALUE: _M_set_length:this <- %R3
	@DEBUG_VALUE: _M_data:this <- %R3
	@DEBUG_VALUE: _M_construct<const char *>:__dnew <- 3
	@DEBUG_VALUE: _M_construct<const char *>:this <- %R3
	@DEBUG_VALUE: _M_construct_aux<const char *>:this <- %R3
	@DEBUG_VALUE: _M_construct<const char *>:this <- %R3
	@DEBUG_VALUE: _S_copy_chars:__p <- %R5
	@DEBUG_VALUE: _S_copy:__d <- %R5
	@DEBUG_VALUE: _M_local_data:this <- %R3
	.loc	26 136 28               @ /usr/bin/../lib/gcc/arm-linux-gnueabihf/6.3.0/../../../../include/c++/6.3.0/bits/basic_string.h:136:28
	ldr	r1, [sp, #36]
.Ltmp165:
	.loc	26 142 51               @ /usr/bin/../lib/gcc/arm-linux-gnueabihf/6.3.0/../../../../include/c++/6.3.0/bits/basic_string.h:142:51
	add	r5, r3, #8
.Ltmp166:
	.loc	27 243 14               @ /usr/bin/../lib/gcc/arm-linux-gnueabihf/6.3.0/../../../../include/c++/6.3.0/bits/char_traits.h:243:14
	strb	r2, [r1, r0]
.Ltmp167:
	.loc	27 290 33               @ /usr/bin/../lib/gcc/arm-linux-gnueabihf/6.3.0/../../../../include/c++/6.3.0/bits/char_traits.h:290:33
	mov	r0, #105
.Ltmp168:
	@DEBUG_VALUE: _S_copy:__n <- 3
	.loc	26 110 25               @ /usr/bin/../lib/gcc/arm-linux-gnueabihf/6.3.0/../../../../include/c++/6.3.0/bits/basic_string.h:110:25
	str	r5, [sp, #8]
.Ltmp169:
	.loc	27 290 33               @ /usr/bin/../lib/gcc/arm-linux-gnueabihf/6.3.0/../../../../include/c++/6.3.0/bits/char_traits.h:290:33
	strb	r0, [sp, #18]
	movw	r0, #30055
	strh	r0, [sp, #16]
	mov	r0, #3
.Ltmp170:
	@DEBUG_VALUE: _M_length:__length <- 3
	.loc	26 132 26               @ /usr/bin/../lib/gcc/arm-linux-gnueabihf/6.3.0/../../../../include/c++/6.3.0/bits/basic_string.h:132:26
	str	r0, [sp, #12]
.Ltmp171:
	.loc	27 243 14               @ /usr/bin/../lib/gcc/arm-linux-gnueabihf/6.3.0/../../../../include/c++/6.3.0/bits/char_traits.h:243:14
	strb	r2, [sp, #19]
.Ltmp172:
	.loc	3 79 6 discriminator 2  @ /root/Bela/projects/granular_delay/render.cpp:79:6
.Ltmp89:
	movw	r0, :lower16:gui
	add	r1, sp, #36
.Ltmp173:
	@DEBUG_VALUE: _M_data:this <- %R1
	@DEBUG_VALUE: _M_length:this <- %R1
	movt	r0, :upper16:gui
	movw	r2, #5555
	bl	_ZN3Gui5setupENSt7__cxx1112basic_stringIcSt11char_traitsIcESaIcEEEjS5_
.Ltmp174:
.Ltmp90:
.Ltmp175:
@ BB#25:
	@DEBUG_VALUE: assign:__c2 <- %R4
	@DEBUG_VALUE: _S_copy:__s <- %R4
	@DEBUG_VALUE: _S_copy_chars:__k1 <- %R4
	@DEBUG_VALUE: _M_construct<const char *>:__beg <- %R4
	@DEBUG_VALUE: _M_construct_aux<const char *>:__beg <- %R4
	@DEBUG_VALUE: _M_construct<const char *>:__beg <- %R4
	@DEBUG_VALUE: length:__s <- %R4
	@DEBUG_VALUE: basic_string:__s <- %R4
	.loc	26 136 28               @ /usr/bin/../lib/gcc/arm-linux-gnueabihf/6.3.0/../../../../include/c++/6.3.0/bits/basic_string.h:136:28
	ldr	r0, [sp, #8]
.Ltmp176:
	@DEBUG_VALUE: deallocate:__p <- %R0
	@DEBUG_VALUE: deallocate:__p <- %R0
	.loc	26 180 6                @ /usr/bin/../lib/gcc/arm-linux-gnueabihf/6.3.0/../../../../include/c++/6.3.0/bits/basic_string.h:180:6
	cmp	r0, r5
	beq	.LBB2_27
.Ltmp177:
@ BB#26:
	@DEBUG_VALUE: deallocate:__p <- %R0
	@DEBUG_VALUE: deallocate:__p <- %R0
	@DEBUG_VALUE: assign:__c2 <- %R4
	@DEBUG_VALUE: _S_copy:__s <- %R4
	@DEBUG_VALUE: _S_copy_chars:__k1 <- %R4
	@DEBUG_VALUE: _M_construct<const char *>:__beg <- %R4
	@DEBUG_VALUE: _M_construct_aux<const char *>:__beg <- %R4
	@DEBUG_VALUE: _M_construct<const char *>:__beg <- %R4
	@DEBUG_VALUE: length:__s <- %R4
	@DEBUG_VALUE: basic_string:__s <- %R4
	.loc	10 110 9                @ /usr/bin/../lib/gcc/arm-linux-gnueabihf/6.3.0/../../../../include/c++/6.3.0/ext/new_allocator.h:110:9
	bl	_ZdlPv
.Ltmp178:
.LBB2_27:                               @ %_ZNSt7__cxx1112basic_stringIcSt11char_traitsIcESaIcEED2Ev.exit28
	@DEBUG_VALUE: assign:__c2 <- %R4
	@DEBUG_VALUE: _S_copy:__s <- %R4
	@DEBUG_VALUE: _S_copy_chars:__k1 <- %R4
	@DEBUG_VALUE: _M_construct<const char *>:__beg <- %R4
	@DEBUG_VALUE: _M_construct_aux<const char *>:__beg <- %R4
	@DEBUG_VALUE: _M_construct<const char *>:__beg <- %R4
	@DEBUG_VALUE: length:__s <- %R4
	@DEBUG_VALUE: basic_string:__s <- %R4
	.loc	26 136 28               @ /usr/bin/../lib/gcc/arm-linux-gnueabihf/6.3.0/../../../../include/c++/6.3.0/bits/basic_string.h:136:28
	ldr	r0, [sp, #36]
.Ltmp179:
	@DEBUG_VALUE: deallocate:__p <- %R0
	@DEBUG_VALUE: deallocate:__p <- %R0
	.loc	26 180 6                @ /usr/bin/../lib/gcc/arm-linux-gnueabihf/6.3.0/../../../../include/c++/6.3.0/bits/basic_string.h:180:6
	cmp	r0, r7
	beq	.LBB2_29
.Ltmp180:
@ BB#28:
	@DEBUG_VALUE: deallocate:__p <- %R0
	@DEBUG_VALUE: deallocate:__p <- %R0
	@DEBUG_VALUE: assign:__c2 <- %R4
	@DEBUG_VALUE: _S_copy:__s <- %R4
	@DEBUG_VALUE: _S_copy_chars:__k1 <- %R4
	@DEBUG_VALUE: _M_construct<const char *>:__beg <- %R4
	@DEBUG_VALUE: _M_construct_aux<const char *>:__beg <- %R4
	@DEBUG_VALUE: _M_construct<const char *>:__beg <- %R4
	@DEBUG_VALUE: length:__s <- %R4
	@DEBUG_VALUE: basic_string:__s <- %R4
	.loc	10 110 9                @ /usr/bin/../lib/gcc/arm-linux-gnueabihf/6.3.0/../../../../include/c++/6.3.0/ext/new_allocator.h:110:9
	bl	_ZdlPv
.Ltmp181:
.LBB2_29:                               @ %_ZNSt7__cxx1112basic_stringIcSt11char_traitsIcESaIcEED2Ev.exit27
	@DEBUG_VALUE: assign:__c2 <- %R4
	@DEBUG_VALUE: _S_copy:__s <- %R4
	@DEBUG_VALUE: _S_copy_chars:__k1 <- %R4
	@DEBUG_VALUE: _M_construct<const char *>:__beg <- %R4
	@DEBUG_VALUE: _M_construct_aux<const char *>:__beg <- %R4
	@DEBUG_VALUE: _M_construct<const char *>:__beg <- %R4
	@DEBUG_VALUE: length:__s <- %R4
	@DEBUG_VALUE: basic_string:__s <- %R4
	.loc	3 80 6                  @ /root/Bela/projects/granular_delay/render.cpp:80:6
	movw	r0, :lower16:gui
	mov	r1, #102
	movt	r0, :upper16:gui
	mov	r2, #10
	bl	_ZN3Gui9setBufferEcj
	mov	r0, #1
	.loc	3 83 1 discriminator 3  @ /root/Bela/projects/granular_delay/render.cpp:83:1
	sub	sp, r11, #28
	pop	{r4, r5, r6, r7, r8, r9, r10, r11, pc}
.Ltmp182:
.LBB2_30:
	@DEBUG_VALUE: _S_copy:__n <- %R5
	@DEBUG_VALUE: assign:__c2 <- %R4
	@DEBUG_VALUE: _S_copy:__s <- %R4
	@DEBUG_VALUE: _S_copy_chars:__k1 <- %R4
	@DEBUG_VALUE: _M_construct<const char *>:__beg <- %R4
	@DEBUG_VALUE: _M_construct_aux<const char *>:__beg <- %R4
	@DEBUG_VALUE: _M_construct<const char *>:__beg <- %R4
	@DEBUG_VALUE: length:__s <- %R4
	@DEBUG_VALUE: basic_string:__s <- %R4
.Ltmp88:
	mov	r4, r0
.Ltmp183:
	b	.LBB2_35
.Ltmp184:
.LBB2_31:
	@DEBUG_VALUE: assign:__c2 <- %R4
	@DEBUG_VALUE: _S_copy:__s <- %R4
	@DEBUG_VALUE: _S_copy_chars:__k1 <- %R4
	@DEBUG_VALUE: _M_construct<const char *>:__beg <- %R4
	@DEBUG_VALUE: _M_construct_aux<const char *>:__beg <- %R4
	@DEBUG_VALUE: _M_construct<const char *>:__beg <- %R4
	@DEBUG_VALUE: length:__s <- %R4
	@DEBUG_VALUE: basic_string:__s <- %R4
.Ltmp91:
	mov	r4, r0
.Ltmp185:
	.loc	26 136 28               @ /usr/bin/../lib/gcc/arm-linux-gnueabihf/6.3.0/../../../../include/c++/6.3.0/bits/basic_string.h:136:28
	ldr	r0, [sp, #8]
.Ltmp186:
	@DEBUG_VALUE: deallocate:__p <- %R0
	@DEBUG_VALUE: deallocate:__p <- %R0
	.loc	26 180 6                @ /usr/bin/../lib/gcc/arm-linux-gnueabihf/6.3.0/../../../../include/c++/6.3.0/bits/basic_string.h:180:6
	cmp	r0, r5
	beq	.LBB2_33
.Ltmp187:
@ BB#32:
	@DEBUG_VALUE: deallocate:__p <- %R0
	@DEBUG_VALUE: deallocate:__p <- %R0
	.loc	10 110 9                @ /usr/bin/../lib/gcc/arm-linux-gnueabihf/6.3.0/../../../../include/c++/6.3.0/ext/new_allocator.h:110:9
	bl	_ZdlPv
.Ltmp188:
.LBB2_33:                               @ %_ZNSt7__cxx1112basic_stringIcSt11char_traitsIcESaIcEED2Ev.exit25
	.loc	26 136 28               @ /usr/bin/../lib/gcc/arm-linux-gnueabihf/6.3.0/../../../../include/c++/6.3.0/bits/basic_string.h:136:28
	ldr	r0, [sp, #36]
.Ltmp189:
	@DEBUG_VALUE: deallocate:__p <- %R0
	@DEBUG_VALUE: deallocate:__p <- %R0
	.loc	26 180 6                @ /usr/bin/../lib/gcc/arm-linux-gnueabihf/6.3.0/../../../../include/c++/6.3.0/bits/basic_string.h:180:6
	cmp	r0, r7
	beq	.LBB2_35
	b	.LBB2_36
.Ltmp190:
.LBB2_34:
.Ltmp85:
	mov	r4, r0
.Ltmp191:
	.loc	7 160 37                @ /usr/bin/../lib/gcc/arm-linux-gnueabihf/6.3.0/../../../../include/c++/6.3.0/bits/stl_vector.h:160:37
	ldr	r0, [sp, #60]
.Ltmp192:
	@DEBUG_VALUE: _M_deallocate:__p <- %R0
	@DEBUG_VALUE: deallocate:__p <- %R0
	@DEBUG_VALUE: deallocate:__p <- %R0
	.loc	7 177 6                 @ /usr/bin/../lib/gcc/arm-linux-gnueabihf/6.3.0/../../../../include/c++/6.3.0/bits/stl_vector.h:177:6
	cmp	r0, #0
	bne	.LBB2_36
.Ltmp193:
.LBB2_35:                               @ %_ZNSt7__cxx1112basic_stringIcSt11char_traitsIcESaIcEED2Ev.exit
	mov	r0, r4
	mov	lr, pc
	b	_Unwind_Resume
.LBB2_36:
.Ltmp194:
	.loc	10 110 9                @ /usr/bin/../lib/gcc/arm-linux-gnueabihf/6.3.0/../../../../include/c++/6.3.0/ext/new_allocator.h:110:9
	bl	_ZdlPv
	mov	r0, r4
	mov	lr, pc
	b	_Unwind_Resume
.Ltmp195:
	.p2align	3
@ BB#37:
.LCPI2_1:
	.long	2576980378              @ double 0.10000000000000001
	.long	1069128089
.LCPI2_0:
	.long	981668463               @ float 0.00100000005
.Lfunc_end2:
	.size	setup, .Lfunc_end2-setup
	.cfi_endproc
	.file	51 "<stdin>"
	.globl	__gxx_personality_v0
	.personality __gxx_personality_v0
	.handlerdata
	.p2align	2
GCC_except_table2:
.Lexception0:
	.byte	255                     @ @LPStart Encoding = omit
	.byte	0                       @ @TType Encoding = absptr
	.asciz	"\320"                  @ @TType base offset
	.byte	3                       @ Call site Encoding = udata4
	.byte	78                      @ Call site table length
	.long	.Ltmp79-.Lfunc_begin2   @ >> Call Site 1 <<
	.long	.Ltmp84-.Ltmp79         @   Call between .Ltmp79 and .Ltmp84
	.long	.Ltmp85-.Lfunc_begin2   @     jumps to .Ltmp85
	.byte	0                       @   On action: cleanup
	.long	.Ltmp84-.Lfunc_begin2   @ >> Call Site 2 <<
	.long	.Ltmp86-.Ltmp84         @   Call between .Ltmp84 and .Ltmp86
	.long	0                       @     has no landing pad
	.byte	0                       @   On action: cleanup
	.long	.Ltmp86-.Lfunc_begin2   @ >> Call Site 3 <<
	.long	.Ltmp87-.Ltmp86         @   Call between .Ltmp86 and .Ltmp87
	.long	.Ltmp88-.Lfunc_begin2   @     jumps to .Ltmp88
	.byte	0                       @   On action: cleanup
	.long	.Ltmp87-.Lfunc_begin2   @ >> Call Site 4 <<
	.long	.Ltmp89-.Ltmp87         @   Call between .Ltmp87 and .Ltmp89
	.long	0                       @     has no landing pad
	.byte	0                       @   On action: cleanup
	.long	.Ltmp89-.Lfunc_begin2   @ >> Call Site 5 <<
	.long	.Ltmp90-.Ltmp89         @   Call between .Ltmp89 and .Ltmp90
	.long	.Ltmp91-.Lfunc_begin2   @     jumps to .Ltmp91
	.byte	0                       @   On action: cleanup
	.long	.Ltmp90-.Lfunc_begin2   @ >> Call Site 6 <<
	.long	.Lfunc_end2-.Ltmp90     @   Call between .Ltmp90 and .Lfunc_end2
	.long	0                       @     has no landing pad
	.byte	0                       @   On action: cleanup
	.p2align	2
	.fnend

	.globl	_Z11triggerNotei
	.p2align	2
	.type	_Z11triggerNotei,%function
_Z11triggerNotei:                       @ @_Z11triggerNotei
.Lfunc_begin3:
	.loc	3 85 0                  @ /root/Bela/projects/granular_delay/render.cpp:85:0
	.fnstart
	.cfi_startproc
@ BB#0:
	@DEBUG_VALUE: triggerNote:sensor_idx <- %R0
	.loc	3 86 10 prologue_end    @ /root/Bela/projects/granular_delay/render.cpp:86:10
	movw	r1, :lower16:.L_MergedGlobals
	mov	r2, #1
	movt	r1, :upper16:.L_MergedGlobals
	strb	r2, [r1]
	mov	r2, #0
	.loc	3 87 15                 @ /root/Bela/projects/granular_delay/render.cpp:87:15
	str	r2, [r1, #36]
.Ltmp196:
	@DEBUG_VALUE: operator[]:__n <- %R0
	.loc	7 781 32                @ /usr/bin/../lib/gcc/arm-linux-gnueabihf/6.3.0/../../../../include/c++/6.3.0/bits/stl_vector.h:781:32
	ldr	r2, [r1, #52]
.Ltmp197:
	.loc	3 88 10                 @ /root/Bela/projects/granular_delay/render.cpp:88:10
	ldr	r0, [r2, r0, lsl #2]
.Ltmp198:
	.loc	3 88 8 is_stmt 0        @ /root/Bela/projects/granular_delay/render.cpp:88:8
	str	r0, [r1, #40]
	.loc	3 89 1 is_stmt 1        @ /root/Bela/projects/granular_delay/render.cpp:89:1
	bx	lr
.Ltmp199:
.Lfunc_end3:
	.size	_Z11triggerNotei, .Lfunc_end3-_Z11triggerNotei
	.cfi_endproc
	.fnend

	.globl	render
	.p2align	2
	.type	render,%function
render:                                 @ @render
.Lfunc_begin4:
	.loc	3 95 0                  @ /root/Bela/projects/granular_delay/render.cpp:95:0
	.fnstart
	.cfi_startproc
@ BB#0:
	.save	{r4, r5, r6, r7, r8, r9, r10, r11, lr}
	push	{r4, r5, r6, r7, r8, r9, r10, r11, lr}
.Ltmp200:
	.cfi_def_cfa_offset 36
.Ltmp201:
	.cfi_offset lr, -4
.Ltmp202:
	.cfi_offset r11, -8
.Ltmp203:
	.cfi_offset r10, -12
.Ltmp204:
	.cfi_offset r9, -16
.Ltmp205:
	.cfi_offset r8, -20
.Ltmp206:
	.cfi_offset r7, -24
.Ltmp207:
	.cfi_offset r6, -28
.Ltmp208:
	.cfi_offset r5, -32
.Ltmp209:
	.cfi_offset r4, -36
	.setfp	r11, sp, #28
	add	r11, sp, #28
.Ltmp210:
	.cfi_def_cfa r11, 8
	.pad	#4
	sub	sp, sp, #4
	.vsave	{d8, d9, d10, d11, d12, d13}
	vpush	{d8, d9, d10, d11, d12, d13}
.Ltmp211:
	.cfi_offset d13, -48
.Ltmp212:
	.cfi_offset d12, -56
.Ltmp213:
	.cfi_offset d11, -64
.Ltmp214:
	.cfi_offset d10, -72
.Ltmp215:
	.cfi_offset d9, -80
.Ltmp216:
	.cfi_offset d8, -88
	@DEBUG_VALUE: render:context <- %R0
	@DEBUG_VALUE: render:userData <- %R1
	mov	r10, r0
.Ltmp217:
	@DEBUG_VALUE: render:context <- %R10
	.loc	3 99 27 prologue_end discriminator 1 @ /root/Bela/projects/granular_delay/render.cpp:99:27
	movw	r0, :lower16:gui
	movt	r0, :upper16:gui
	mov	r1, #0
.Ltmp218:
	mov	r4, #0
	bl	_ZN3Gui13getDataBufferEj
.Ltmp219:
	@DEBUG_VALUE: getAsFloat:this <- %R0
	@DEBUG_VALUE: render:buffer <- %R0
	.loc	7 892 42                @ /usr/bin/../lib/gcc/arm-linux-gnueabihf/6.3.0/../../../../include/c++/6.3.0/bits/stl_vector.h:892:42
	ldr	r0, [r0, #4]
.Ltmp220:
	@DEBUG_VALUE: render:data <- %R0
	.loc	3 105 20                @ /root/Bela/projects/granular_delay/render.cpp:105:20
	vmov.f32	d16, #1.250000e-01
	.loc	3 106 26                @ /root/Bela/projects/granular_delay/render.cpp:106:26
	vldr	s6, .LCPI4_0
	.loc	3 105 11                @ /root/Bela/projects/granular_delay/render.cpp:105:11
	movw	r6, :lower16:.L_MergedGlobals
	movt	r6, :upper16:.L_MergedGlobals
	.loc	3 103 26                @ /root/Bela/projects/granular_delay/render.cpp:103:26
	vldr	s16, .LCPI4_1
	.loc	3 105 13                @ /root/Bela/projects/granular_delay/render.cpp:105:13
	vldr	s0, [r0, #12]
	.loc	3 102 16                @ /root/Bela/projects/granular_delay/render.cpp:102:16
	vldr	s18, [r0]
.Ltmp221:
	@DEBUG_VALUE: render:speed <- %S18
	.loc	3 105 20                @ /root/Bela/projects/granular_delay/render.cpp:105:20
	vmul.f32	d4, d0, d16
	.loc	3 103 19                @ /root/Bela/projects/granular_delay/render.cpp:103:19
	vldr	s2, [r0, #4]
	.loc	3 106 26                @ /root/Bela/projects/granular_delay/render.cpp:106:26
	vmul.f32	d16, d0, d3
	.loc	3 104 18                @ /root/Bela/projects/granular_delay/render.cpp:104:18
	vldr	s4, [r0, #8]
	.loc	3 105 11                @ /root/Bela/projects/granular_delay/render.cpp:105:11
	vstr	s8, [r6, #24]
	.loc	3 106 45                @ /root/Bela/projects/granular_delay/render.cpp:106:45
	vldr	s0, [r10, #32]
	.loc	3 106 34 is_stmt 0      @ /root/Bela/projects/granular_delay/render.cpp:106:34
	vmul.f32	d3, d16, d0
	.loc	3 106 14                @ /root/Bela/projects/granular_delay/render.cpp:106:14
	vstr	s6, [r6, #20]
	.loc	3 112 21 is_stmt 1      @ /root/Bela/projects/granular_delay/render.cpp:112:21
	vldr	s8, [r0, #28]
	.loc	3 108 21                @ /root/Bela/projects/granular_delay/render.cpp:108:21
	vldr	s10, [r0, #32]
	.loc	3 112 21                @ /root/Bela/projects/granular_delay/render.cpp:112:21
	vcvt.s32.f32	d4, d4
	.loc	3 107 16                @ /root/Bela/projects/granular_delay/render.cpp:107:16
	vldr	s6, [r0, #16]
	.loc	3 108 28                @ /root/Bela/projects/granular_delay/render.cpp:108:28
	vmul.f32	d10, d5, d8
	.loc	3 112 21                @ /root/Bela/projects/granular_delay/render.cpp:112:21
	vmov	r0, s8
.Ltmp222:
	@DEBUG_VALUE: render:sensor_index <- %R0
	@DEBUG_VALUE: triggerNote:sensor_idx <- %R0
	@DEBUG_VALUE: operator[]:__n <- %R0
	.loc	3 114 6                 @ /root/Bela/projects/granular_delay/render.cpp:114:6
	cmp	r0, #1
.Ltmp223:
	.loc	3 86 10                 @ /root/Bela/projects/granular_delay/render.cpp:86:10
	movge	r1, #1
	strbge	r1, [r6]
	.loc	3 87 15                 @ /root/Bela/projects/granular_delay/render.cpp:87:15
	strge	r4, [r6, #36]
.Ltmp224:
	.loc	7 781 32                @ /usr/bin/../lib/gcc/arm-linux-gnueabihf/6.3.0/../../../../include/c++/6.3.0/bits/stl_vector.h:781:32
	ldrge	r1, [r6, #52]
.Ltmp225:
	.loc	3 88 10                 @ /root/Bela/projects/granular_delay/render.cpp:88:10
	ldrge	r0, [r1, r0, lsl #2]
.Ltmp226:
	.loc	3 88 8 is_stmt 0        @ /root/Bela/projects/granular_delay/render.cpp:88:8
	strge	r0, [r6, #40]
.Ltmp227:
	@DEBUG_VALUE: render:delayTime <- %S20
	.loc	3 121 17 is_stmt 1 discriminator 1 @ /root/Bela/projects/granular_delay/render.cpp:121:17
	ldr	r7, [r6, #12]
	.loc	3 121 2 is_stmt 0 discriminator 1 @ /root/Bela/projects/granular_delay/render.cpp:121:2
	cmp	r7, #1
	blt	.LBB4_3
.Ltmp228:
@ BB#1:                                 @ %.lr.ph95.preheader
	@DEBUG_VALUE: render:delayTime <- %S20
	@DEBUG_VALUE: render:speed <- %S18
	@DEBUG_VALUE: render:context <- %R10
	.loc	3 104 25 is_stmt 1      @ /root/Bela/projects/granular_delay/render.cpp:104:25
	vmul.f32	d11, d2, d8
	movw	r5, :lower16:grain_generators
	.loc	3 103 26                @ /root/Bela/projects/granular_delay/render.cpp:103:26
	vmul.f32	d12, d1, d8
	mov	r4, #0
	.loc	3 107 23                @ /root/Bela/projects/granular_delay/render.cpp:107:23
	vmul.f32	d13, d3, d8
.Ltmp229:
	@DEBUG_VALUE: render:spray <- %S26
	@DEBUG_VALUE: render:duration <- %S24
	@DEBUG_VALUE: render:filePos <- %S22
	movt	r5, :upper16:grain_generators
.Ltmp230:
.LBB4_2:                                @ %.lr.ph95
                                        @ =>This Inner Loop Header: Depth=1
	.loc	3 122 38                @ /root/Bela/projects/granular_delay/render.cpp:122:38
	vldr	s0, [r6, #40]
	.loc	3 122 23 is_stmt 0      @ /root/Bela/projects/granular_delay/render.cpp:122:23
	mov	r0, r5
	.loc	3 122 37                @ /root/Bela/projects/granular_delay/render.cpp:122:37
	vmul.f32	d0, d0, d9
	.loc	3 122 23                @ /root/Bela/projects/granular_delay/render.cpp:122:23
                                        @ kill: %S0<def> %S0<kill> %D0<kill>
	bl	_ZN14GrainGenerator8setSpeedEf
	.loc	3 123 55 is_stmt 1      @ /root/Bela/projects/granular_delay/render.cpp:123:55
	vldr	s0, [r10, #32]
	.loc	3 123 23 is_stmt 0      @ /root/Bela/projects/granular_delay/render.cpp:123:23
	mov	r0, r5
	.loc	3 123 44                @ /root/Bela/projects/granular_delay/render.cpp:123:44
	vmul.f32	d16, d12, d0
	.loc	3 123 35                @ /root/Bela/projects/granular_delay/render.cpp:123:35
	vcvt.s32.f32	d0, d16
	vmov	r1, s0
	.loc	3 123 23                @ /root/Bela/projects/granular_delay/render.cpp:123:23
	bl	_ZN14GrainGenerator11setDurationEi
	.loc	3 124 52 is_stmt 1      @ /root/Bela/projects/granular_delay/render.cpp:124:52
	vldr	s0, [r10, #32]
	.loc	3 124 23 is_stmt 0      @ /root/Bela/projects/granular_delay/render.cpp:124:23
	mov	r0, r5
	.loc	3 124 41                @ /root/Bela/projects/granular_delay/render.cpp:124:41
	vmul.f32	d16, d11, d0
	.loc	3 124 34                @ /root/Bela/projects/granular_delay/render.cpp:124:34
	vcvt.s32.f32	d0, d16
	vmov	r1, s0
	.loc	3 124 23                @ /root/Bela/projects/granular_delay/render.cpp:124:23
	bl	_ZN14GrainGenerator10setFilePosEi
	.loc	3 125 49 is_stmt 1      @ /root/Bela/projects/granular_delay/render.cpp:125:49
	vldr	s0, [r10, #32]
.Ltmp231:
	.loc	3 121 28 discriminator 3 @ /root/Bela/projects/granular_delay/render.cpp:121:28
	add	r4, r4, #1
.Ltmp232:
	@DEBUG_VALUE: i <- %R4
	.loc	3 121 17 is_stmt 0 discriminator 1 @ /root/Bela/projects/granular_delay/render.cpp:121:17
	ldr	r7, [r6, #12]
.Ltmp233:
	.loc	3 125 38 is_stmt 1      @ /root/Bela/projects/granular_delay/render.cpp:125:38
	vmul.f32	d1, d13, d0
.Ltmp234:
	@DEBUG_VALUE: setSpray:spray <- %S2
	.loc	3 121 2 discriminator 1 @ /root/Bela/projects/granular_delay/render.cpp:121:2
	cmp	r4, r7
.Ltmp235:
	.loc	23 35 44                @ /root/Bela/projects/granular_delay/./GrainGenerator/GrainGenerator.h:35:44
	vstr	s2, [r5, #28]
.Ltmp236:
	.loc	3 121 16 discriminator 1 @ /root/Bela/projects/granular_delay/render.cpp:121:16
	add	r5, r5, #40
	blt	.LBB4_2
.Ltmp237:
.LBB4_3:                                @ %._crit_edge96
	.loc	3 129 48                @ /root/Bela/projects/granular_delay/render.cpp:129:48
	vmul.f32	d16, d10, d0
	.loc	3 129 17 is_stmt 0      @ /root/Bela/projects/granular_delay/render.cpp:129:17
	ldr	r0, [r6, #48]
.Ltmp238:
	.loc	7 656 66 is_stmt 1      @ /usr/bin/../lib/gcc/arm-linux-gnueabihf/6.3.0/../../../../include/c++/6.3.0/bits/stl_vector.h:656:66
	ldrd	r2, r3, [r6, #64]
.Ltmp239:
	.loc	3 129 37                @ /root/Bela/projects/granular_delay/render.cpp:129:37
	vcvt.s32.f32	d0, d16
	vmov	r1, s0
	.loc	3 129 30 is_stmt 0      @ /root/Bela/projects/granular_delay/render.cpp:129:30
	sub	r0, r0, r1
.Ltmp240:
	.loc	7 656 50 is_stmt 1      @ /usr/bin/../lib/gcc/arm-linux-gnueabihf/6.3.0/../../../../include/c++/6.3.0/bits/stl_vector.h:656:50
	sub	r1, r3, r2
.Ltmp241:
	.loc	3 129 77                @ /root/Bela/projects/granular_delay/render.cpp:129:77
	add	r0, r0, r1, asr #2
.Ltmp242:
	.loc	7 656 50                @ /usr/bin/../lib/gcc/arm-linux-gnueabihf/6.3.0/../../../../include/c++/6.3.0/bits/stl_vector.h:656:50
	asr	r1, r1, #2
.Ltmp243:
	.loc	3 129 100               @ /root/Bela/projects/granular_delay/render.cpp:129:100
	bl	__aeabi_uidivmod
.Ltmp244:
	@DEBUG_VALUE: n <- 0
	.loc	3 129 14 is_stmt 0      @ /root/Bela/projects/granular_delay/render.cpp:129:14
	str	r1, [r6, #44]
.Ltmp245:
	.loc	3 133 42 is_stmt 1 discriminator 1 @ /root/Bela/projects/granular_delay/render.cpp:133:42
	ldr	r0, [r10, #20]
	.loc	3 133 5 is_stmt 0 discriminator 1 @ /root/Bela/projects/granular_delay/render.cpp:133:5
	cmp	r0, #0
	beq	.LBB4_25
@ BB#4:                                 @ %.lr.ph92
.Ltmp246:
	.loc	3 136 11 is_stmt 1      @ /root/Bela/projects/granular_delay/render.cpp:136:11
	ldrb	r1, [r6, #1]
.Ltmp247:
	.loc	3 156 17                @ /root/Bela/projects/granular_delay/render.cpp:156:17
	vmov.f32	d9, #1.000000e+00
.Ltmp248:
	.loc	3 176 13                @ /root/Bela/projects/granular_delay/render.cpp:176:13
	vmov.i32	d10, #0x0
	mov	r9, #0
	mov	r8, #0
.Ltmp249:
.LBB4_5:                                @ =>This Loop Header: Depth=1
                                        @     Child Loop BB4_11 Depth 2
                                        @     Child Loop BB4_18 Depth 2
                                        @     Child Loop BB4_21 Depth 2
	.loc	3 136 16                @ /root/Bela/projects/granular_delay/render.cpp:136:16
	tst	r1, #255
	bne	.LBB4_7
@ BB#6:                                 @   in Loop: Header=BB4_5 Depth=1
	.loc	3 136 36 is_stmt 0 discriminator 1 @ /root/Bela/projects/granular_delay/render.cpp:136:36
	vldr	s0, [r6, #28]
	.loc	3 136 19 discriminator 1 @ /root/Bela/projects/granular_delay/render.cpp:136:19
	ldr	r0, [r6, #36]
	.loc	3 136 51 discriminator 1 @ /root/Bela/projects/granular_delay/render.cpp:136:51
	vmul.f32	d16, d0, d8
	.loc	3 136 67 discriminator 1 @ /root/Bela/projects/granular_delay/render.cpp:136:67
	vldr	s0, [r10, #32]
	.loc	3 136 19 discriminator 1 @ /root/Bela/projects/granular_delay/render.cpp:136:19
	vmov	s2, r0
	vcvt.f32.s32	d1, d1
	.loc	3 136 57 discriminator 1 @ /root/Bela/projects/granular_delay/render.cpp:136:57
	vmul.f32	d0, d16, d0
	.loc	3 136 10 discriminator 1 @ /root/Bela/projects/granular_delay/render.cpp:136:10
	vcmpe.f32	s2, s0
	vmrs	APSR_nzcv, fpscr
	movge	r0, #0
.Ltmp250:
	.loc	3 137 12 is_stmt 1      @ /root/Bela/projects/granular_delay/render.cpp:137:12
	strbge	r0, [r6]
.Ltmp251:
.LBB4_7:                                @   in Loop: Header=BB4_5 Depth=1
	@DEBUG_VALUE: in <- 0.000000e+00
	.loc	3 145 7                 @ /root/Bela/projects/granular_delay/render.cpp:145:7
	ldr	r0, [r6, #8]
.Ltmp252:
	.loc	3 145 7 is_stmt 0       @ /root/Bela/projects/granular_delay/render.cpp:145:7
	cmp	r0, #0
	bne	.LBB4_9
@ BB#8:                                 @   in Loop: Header=BB4_5 Depth=1
.Ltmp253:
	.loc	3 146 21 is_stmt 1      @ /root/Bela/projects/granular_delay/render.cpp:146:21
	ldr	r0, [r6, #16]
	.loc	3 146 4 is_stmt 0       @ /root/Bela/projects/granular_delay/render.cpp:146:4
	movw	r1, :lower16:grain_generators
	movt	r1, :upper16:grain_generators
	add	r0, r0, r0, lsl #2
	add	r0, r1, r0, lsl #3
	.loc	3 146 36                @ /root/Bela/projects/granular_delay/render.cpp:146:36
	bl	_ZN14GrainGenerator7triggerEv
.Ltmp254:
	.loc	3 150 18 is_stmt 1 discriminator 1 @ /root/Bela/projects/granular_delay/render.cpp:150:18
	ldr	r7, [r6, #12]
.LBB4_9:                                @ %.preheader
                                        @   in Loop: Header=BB4_5 Depth=1
	vmov.i32	d11, #0x0
	.loc	3 150 3 is_stmt 0 discriminator 1 @ /root/Bela/projects/granular_delay/render.cpp:150:3
	cmp	r7, #1
	blt	.LBB4_12
.Ltmp255:
@ BB#10:                                @ %.lr.ph.preheader
                                        @   in Loop: Header=BB4_5 Depth=1
	.loc	3 146 4 is_stmt 1       @ /root/Bela/projects/granular_delay/render.cpp:146:4
	movw	r0, :lower16:grain_generators
	mov	r4, #0
	movt	r0, :upper16:grain_generators
.Ltmp256:
.LBB4_11:                               @ %.lr.ph
                                        @   Parent Loop BB4_5 Depth=1
                                        @ =>  This Inner Loop Header: Depth=2
	.loc	3 150 17 discriminator 1 @ /root/Bela/projects/granular_delay/render.cpp:150:17
	add	r5, r0, #40
.Ltmp257:
	.loc	3 151 30                @ /root/Bela/projects/granular_delay/render.cpp:151:30
	bl	_ZN14GrainGenerator7processEv
                                        @ kill: %S0<def> %S0<kill> %D0<def>
.Ltmp258:
	.loc	3 150 18 discriminator 1 @ /root/Bela/projects/granular_delay/render.cpp:150:18
	ldr	r7, [r6, #12]
	.loc	3 150 29 is_stmt 0 discriminator 3 @ /root/Bela/projects/granular_delay/render.cpp:150:29
	add	r4, r4, #1
.Ltmp259:
	@DEBUG_VALUE: i <- %R4
	@DEBUG_VALUE: in <- %S22
	.loc	3 151 7 is_stmt 1       @ /root/Bela/projects/granular_delay/render.cpp:151:7
	vadd.f32	d11, d0, d11
.Ltmp260:
	mov	r0, r5
.Ltmp261:
	.loc	3 150 3 discriminator 1 @ /root/Bela/projects/granular_delay/render.cpp:150:3
	cmp	r4, r7
	blt	.LBB4_11
.Ltmp262:
.LBB4_12:                               @ %._crit_edge
                                        @   in Loop: Header=BB4_5 Depth=1
	.loc	3 196 18                @ /root/Bela/projects/granular_delay/render.cpp:196:18
	ldr	r12, [r6, #36]
	mov	r5, r10
	.loc	3 156 35                @ /root/Bela/projects/granular_delay/render.cpp:156:35
	vldr	s0, [r6, #32]
	.loc	3 165 21                @ /root/Bela/projects/granular_delay/render.cpp:165:21
	ldr	r1, [r6, #44]
.Ltmp263:
	@DEBUG_VALUE: operator[]:__n <- %R1
	.loc	3 156 20                @ /root/Bela/projects/granular_delay/render.cpp:156:20
	vmov	s2, r12
.Ltmp264:
	.loc	7 781 32                @ /usr/bin/../lib/gcc/arm-linux-gnueabihf/6.3.0/../../../../include/c++/6.3.0/bits/stl_vector.h:781:32
	ldr	r2, [r6, #64]
.Ltmp265:
	.loc	3 156 20                @ /root/Bela/projects/granular_delay/render.cpp:156:20
	vcvt.f32.s32	d1, d1
	.loc	3 166 15                @ /root/Bela/projects/granular_delay/render.cpp:166:15
	ldr	r0, [r6, #48]
.Ltmp266:
	.loc	7 781 41                @ /usr/bin/../lib/gcc/arm-linux-gnueabihf/6.3.0/../../../../include/c++/6.3.0/bits/stl_vector.h:781:41
	add	r3, r2, r1, lsl #2
.Ltmp267:
	.loc	3 171 20                @ /root/Bela/projects/granular_delay/render.cpp:171:20
	add	r1, r1, #1
.Ltmp268:
	.loc	3 156 33                @ /root/Bela/projects/granular_delay/render.cpp:156:33
	vdiv.f32	s0, s2, s0
	.loc	3 156 17 is_stmt 0      @ /root/Bela/projects/granular_delay/render.cpp:156:17
	vsub.f32	d16, d9, d0
	.loc	3 165 9 is_stmt 1       @ /root/Bela/projects/granular_delay/render.cpp:165:9
	vldr	s0, [r3]
.Ltmp269:
	@DEBUG_VALUE: amp <- undef
	@DEBUG_VALUE: out <- %S0
	.loc	7 781 41                @ /usr/bin/../lib/gcc/arm-linux-gnueabihf/6.3.0/../../../../include/c++/6.3.0/bits/stl_vector.h:781:41
	add	r3, r2, r0, lsl #2
.Ltmp270:
	.loc	3 168 21                @ /root/Bela/projects/granular_delay/render.cpp:168:21
	add	r0, r0, #1
	.loc	3 166 33                @ /root/Bela/projects/granular_delay/render.cpp:166:33
	vmul.f32	d1, d16, d11
.Ltmp271:
	@DEBUG_VALUE: operator[]:__n <- %R0
	.loc	3 166 29 is_stmt 0      @ /root/Bela/projects/granular_delay/render.cpp:166:29
	vstr	s2, [r3]
.Ltmp272:
	.loc	7 656 40 is_stmt 1      @ /usr/bin/../lib/gcc/arm-linux-gnueabihf/6.3.0/../../../../include/c++/6.3.0/bits/stl_vector.h:656:40
	ldr	r3, [r6, #68]
	.loc	7 656 50 is_stmt 0      @ /usr/bin/../lib/gcc/arm-linux-gnueabihf/6.3.0/../../../../include/c++/6.3.0/bits/stl_vector.h:656:50
	sub	r2, r3, r2
	mov	r3, #0
.Ltmp273:
	.loc	3 169 12 is_stmt 1      @ /root/Bela/projects/granular_delay/render.cpp:169:12
	cmp	r0, r2, asr #2
	movhs	r0, r3
.Ltmp274:
	.loc	3 172 12                @ /root/Bela/projects/granular_delay/render.cpp:172:12
	cmp	r1, r2, asr #2
	movhs	r1, r3
.Ltmp275:
	.loc	3 173 22                @ /root/Bela/projects/granular_delay/render.cpp:173:22
	str	r1, [r6, #44]
.Ltmp276:
	.loc	3 170 23                @ /root/Bela/projects/granular_delay/render.cpp:170:23
	str	r0, [r6, #48]
.Ltmp277:
	.loc	3 176 17 discriminator 1 @ /root/Bela/projects/granular_delay/render.cpp:176:17
	ldrb	r0, [r6]
	.loc	3 176 8 is_stmt 0       @ /root/Bela/projects/granular_delay/render.cpp:176:8
	ldrb	r1, [r6, #1]
.Ltmp278:
	.loc	3 181 55 is_stmt 1 discriminator 1 @ /root/Bela/projects/granular_delay/render.cpp:181:55
	ldr	r2, [r10, #28]
.Ltmp279:
	.loc	3 176 13                @ /root/Bela/projects/granular_delay/render.cpp:176:13
	orr	r0, r0, r1
.Ltmp280:
	@DEBUG_VALUE: out <- 0.000000e+00
	tst	r0, #255
	vmoveq.f32	s0, s20
.Ltmp281:
	.loc	3 181 6 discriminator 1 @ /root/Bela/projects/granular_delay/render.cpp:181:6
	cmp	r2, #0
	beq	.LBB4_22
@ BB#13:                                @ %.lr.ph88
                                        @   in Loop: Header=BB4_5 Depth=1
	mov	r0, r5
	mov	r4, #0
	ldr	r3, [r0, #4]
	cmp	r2, #3
	bls	.LBB4_20
@ BB#14:                                @ %min.iters.checked
                                        @   in Loop: Header=BB4_5 Depth=1
	mov	r10, r2
	bfc	r10, #0, #2
	cmp	r10, #0
	beq	.LBB4_20
.Ltmp282:
@ BB#15:                                @ %vector.memcheck
                                        @   in Loop: Header=BB4_5 Depth=1
	.loc	3 136 11                @ /root/Bela/projects/granular_delay/render.cpp:136:11
	lsl	r0, r8, #2
.Ltmp283:
	.loc	3 181 6 discriminator 1 @ /root/Bela/projects/granular_delay/render.cpp:181:6
	add	lr, r6, #4
	mla	r0, r2, r0, r3
	cmp	r0, lr
	bhs	.LBB4_17
.Ltmp284:
@ BB#16:                                @ %vector.memcheck
                                        @   in Loop: Header=BB4_5 Depth=1
	.loc	3 136 11                @ /root/Bela/projects/granular_delay/render.cpp:136:11
	mov	r0, #4
	add	r0, r0, r8, lsl #2
.Ltmp285:
	.loc	3 181 6 discriminator 1 @ /root/Bela/projects/granular_delay/render.cpp:181:6
	mla	r0, r2, r0, r3
	cmp	r0, lr
	bhi	.LBB4_20
.LBB4_17:                               @ %vector.ph
                                        @   in Loop: Header=BB4_5 Depth=1
.Ltmp286:
	.loc	3 183 40                @ /root/Bela/projects/granular_delay/render.cpp:183:40
	vld1.32	{d16[], d17[]}, [lr:32]
.Ltmp287:
	.loc	3 181 6 discriminator 1 @ /root/Bela/projects/granular_delay/render.cpp:181:6
	mla	r4, r2, r9, r3
.Ltmp288:
	.loc	3 183 39                @ /root/Bela/projects/granular_delay/render.cpp:183:39
	vmul.f32	q8, q8, d0[0]
.Ltmp289:
	.loc	3 181 80 discriminator 3 @ /root/Bela/projects/granular_delay/render.cpp:181:80
	mov	r0, r10
.LBB4_18:                               @ %vector.body
                                        @   Parent Loop BB4_5 Depth=1
                                        @ =>  This Inner Loop Header: Depth=2
.Ltmp290:
	.file	52 "./include" "Bela.h"
	.loc	52 1276 65              @ ./include/Bela.h:1276:65
	vst1.32	{d16, d17}, [r4]!
.Ltmp291:
	.loc	3 181 6 discriminator 1 @ /root/Bela/projects/granular_delay/render.cpp:181:6
	subs	r0, r0, #4
	bne	.LBB4_18
@ BB#19:                                @ %middle.block
                                        @   in Loop: Header=BB4_5 Depth=1
	mov	r4, r10
	cmp	r2, r10
	beq	.LBB4_22
.LBB4_20:                               @ %scalar.ph.preheader
                                        @   in Loop: Header=BB4_5 Depth=1
.Ltmp292:
	.loc	3 183 40                @ /root/Bela/projects/granular_delay/render.cpp:183:40
	mla	r0, r2, r8, r4
	add	r0, r3, r0, lsl #2
.LBB4_21:                               @ %scalar.ph
                                        @   Parent Loop BB4_5 Depth=1
                                        @ =>  This Inner Loop Header: Depth=2
	vldr	s2, [r6, #4]
.Ltmp293:
	.loc	3 181 80 discriminator 3 @ /root/Bela/projects/granular_delay/render.cpp:181:80
	add	r4, r4, #1
.Ltmp294:
	@DEBUG_VALUE: channel <- %R4
	.loc	3 181 6 is_stmt 0 discriminator 1 @ /root/Bela/projects/granular_delay/render.cpp:181:6
	cmp	r4, r2
.Ltmp295:
	.loc	3 183 39 is_stmt 1      @ /root/Bela/projects/granular_delay/render.cpp:183:39
	vmul.f32	d1, d1, d0
.Ltmp296:
	.loc	52 1276 65              @ ./include/Bela.h:1276:65
	vstmia	r0!, {s2}
	blo	.LBB4_21
.Ltmp297:
.LBB4_22:                               @ %._crit_edge89
                                        @   in Loop: Header=BB4_5 Depth=1
	.loc	3 187 14                @ /root/Bela/projects/granular_delay/render.cpp:187:14
	ldr	r0, [r6, #8]
	add	r0, r0, #1
	str	r0, [r6, #8]
.Ltmp298:
	.loc	3 188 22                @ /root/Bela/projects/granular_delay/render.cpp:188:22
	vldr	s0, [r6, #20]
	.loc	3 188 10 is_stmt 0      @ /root/Bela/projects/granular_delay/render.cpp:188:10
	vmov	s2, r0
	vcvt.f32.s32	d1, d1
.Ltmp299:
	.loc	3 188 10                @ /root/Bela/projects/granular_delay/render.cpp:188:10
	vcmpe.f32	s2, s0
	vmrs	APSR_nzcv, fpscr
	blt	.LBB4_24
@ BB#23:                                @   in Loop: Header=BB4_5 Depth=1
	mov	r0, #0
.Ltmp300:
	.loc	3 189 16 is_stmt 1      @ /root/Bela/projects/granular_delay/render.cpp:189:16
	str	r0, [r6, #8]
	.loc	3 190 20                @ /root/Bela/projects/granular_delay/render.cpp:190:20
	ldr	r0, [r6, #16]
	add	r0, r0, #1
	.loc	3 191 10                @ /root/Bela/projects/granular_delay/render.cpp:191:10
	cmp	r0, r7
	movwge	r0, #0
.Ltmp301:
	.loc	3 192 21                @ /root/Bela/projects/granular_delay/render.cpp:192:21
	str	r0, [r6, #16]
.Ltmp302:
.LBB4_24:                               @   in Loop: Header=BB4_5 Depth=1
	.loc	3 196 18                @ /root/Bela/projects/granular_delay/render.cpp:196:18
	add	r0, r12, #1
	str	r0, [r6, #36]
	mov	r10, r5
.Ltmp303:
	.loc	3 133 5 discriminator 1 @ /root/Bela/projects/granular_delay/render.cpp:133:5
	add	r9, r9, #4
	.loc	3 133 56 is_stmt 0 discriminator 3 @ /root/Bela/projects/granular_delay/render.cpp:133:56
	add	r8, r8, #1
.Ltmp304:
	@DEBUG_VALUE: n <- %R8
	.loc	3 133 42 discriminator 1 @ /root/Bela/projects/granular_delay/render.cpp:133:42
	ldr	r0, [r10, #20]
	.loc	3 133 5 discriminator 1 @ /root/Bela/projects/granular_delay/render.cpp:133:5
	cmp	r8, r0
	blo	.LBB4_5
.Ltmp305:
.LBB4_25:                               @ %._crit_edge93
	.loc	3 199 1 is_stmt 1       @ /root/Bela/projects/granular_delay/render.cpp:199:1
	vpop	{d8, d9, d10, d11, d12, d13}
	add	sp, sp, #4
	pop	{r4, r5, r6, r7, r8, r9, r10, r11, pc}
.Ltmp306:
	.p2align	2
@ BB#26:
.LCPI4_0:
	.long	956502639               @ float 1.25000006E-4
.LCPI4_1:
	.long	981668463               @ float 0.00100000005
.Lfunc_end4:
	.size	render, .Lfunc_end4-render
	.cfi_endproc
	.fnend

	.globl	cleanup
	.p2align	2
	.type	cleanup,%function
cleanup:                                @ @cleanup
.Lfunc_begin5:
	.loc	3 202 0                 @ /root/Bela/projects/granular_delay/render.cpp:202:0
	.fnstart
	.cfi_startproc
@ BB#0:
	@DEBUG_VALUE: cleanup:context <- %R0
	@DEBUG_VALUE: cleanup:userData <- %R1
	.loc	3 204 1 prologue_end    @ /root/Bela/projects/granular_delay/render.cpp:204:1
	bx	lr
.Ltmp307:
.Lfunc_end5:
	.size	cleanup, .Lfunc_end5-cleanup
	.cfi_endproc
	.fnend

	.section	.text._ZNSt6vectorIfSaIfEEaSERKS1_,"axG",%progbits,_ZNSt6vectorIfSaIfEEaSERKS1_,comdat
	.weak	_ZNSt6vectorIfSaIfEEaSERKS1_
	.p2align	2
	.type	_ZNSt6vectorIfSaIfEEaSERKS1_,%function
_ZNSt6vectorIfSaIfEEaSERKS1_:           @ @_ZNSt6vectorIfSaIfEEaSERKS1_
.Lfunc_begin6:
	.file	53 "/usr/bin/../lib/gcc/arm-linux-gnueabihf/6.3.0/../../../../include/c++/6.3.0/bits" "vector.tcc"
	.loc	53 169 0                @ /usr/bin/../lib/gcc/arm-linux-gnueabihf/6.3.0/../../../../include/c++/6.3.0/bits/vector.tcc:169:0
	.fnstart
	.cfi_startproc
@ BB#0:
	.save	{r4, r5, r6, r7, r8, r9, r11, lr}
	push	{r4, r5, r6, r7, r8, r9, r11, lr}
.Ltmp308:
	.cfi_def_cfa_offset 32
.Ltmp309:
	.cfi_offset lr, -4
.Ltmp310:
	.cfi_offset r11, -8
.Ltmp311:
	.cfi_offset r9, -12
.Ltmp312:
	.cfi_offset r8, -16
.Ltmp313:
	.cfi_offset r7, -20
.Ltmp314:
	.cfi_offset r6, -24
.Ltmp315:
	.cfi_offset r5, -28
.Ltmp316:
	.cfi_offset r4, -32
	.setfp	r11, sp, #24
	add	r11, sp, #24
.Ltmp317:
	.cfi_def_cfa r11, 8
	@DEBUG_VALUE: operator=:this <- %R0
	@DEBUG_VALUE: operator=:__x <- %R1
	mov	r7, r1
.Ltmp318:
	@DEBUG_VALUE: operator=:__x <- %R7
	mov	r4, r0
.Ltmp319:
	@DEBUG_VALUE: operator=:this <- %R4
	.loc	53 170 11 prologue_end  @ /usr/bin/../lib/gcc/arm-linux-gnueabihf/6.3.0/../../../../include/c++/6.3.0/bits/vector.tcc:170:11
	cmp	r7, r4
	beq	.LBB6_19
.Ltmp320:
@ BB#1:
	@DEBUG_VALUE: operator=:this <- %R4
	@DEBUG_VALUE: operator=:__x <- %R7
	@DEBUG_VALUE: size:this <- %R7
	.loc	7 656 66                @ /usr/bin/../lib/gcc/arm-linux-gnueabihf/6.3.0/../../../../include/c++/6.3.0/bits/stl_vector.h:656:66
	ldr	r8, [r7]
	.loc	7 656 40 is_stmt 0      @ /usr/bin/../lib/gcc/arm-linux-gnueabihf/6.3.0/../../../../include/c++/6.3.0/bits/stl_vector.h:656:40
	ldr	r3, [r7, #4]
.Ltmp321:
	.loc	7 737 21 is_stmt 1      @ /usr/bin/../lib/gcc/arm-linux-gnueabihf/6.3.0/../../../../include/c++/6.3.0/bits/stl_vector.h:737:21
	ldr	r0, [r4]
.Ltmp322:
	@DEBUG_VALUE: capacity:this <- %R4
	.loc	7 736 40                @ /usr/bin/../lib/gcc/arm-linux-gnueabihf/6.3.0/../../../../include/c++/6.3.0/bits/stl_vector.h:736:40
	ldr	r1, [r4, #8]
.Ltmp323:
	.loc	7 656 50                @ /usr/bin/../lib/gcc/arm-linux-gnueabihf/6.3.0/../../../../include/c++/6.3.0/bits/stl_vector.h:656:50
	sub	r6, r3, r8
.Ltmp324:
	.loc	7 737 5                 @ /usr/bin/../lib/gcc/arm-linux-gnueabihf/6.3.0/../../../../include/c++/6.3.0/bits/stl_vector.h:737:5
	sub	r1, r1, r0
.Ltmp325:
	.loc	7 656 50                @ /usr/bin/../lib/gcc/arm-linux-gnueabihf/6.3.0/../../../../include/c++/6.3.0/bits/stl_vector.h:656:50
	asr	r5, r6, #2
.Ltmp326:
	@DEBUG_VALUE: __xlen <- %R5
	@DEBUG_VALUE: _M_allocate_and_copy<__gnu_cxx::__normal_iterator<const float *, std::vector<float, std::allocator<float> > > >:__n <- %R5
	@DEBUG_VALUE: _M_allocate:__n <- %R5
	@DEBUG_VALUE: allocate:__n <- %R5
	@DEBUG_VALUE: allocate:__n <- %R5
	@DEBUG_VALUE: __copy_m<float>:_Num <- %R5
	.loc	53 192 8                @ /usr/bin/../lib/gcc/arm-linux-gnueabihf/6.3.0/../../../../include/c++/6.3.0/bits/vector.tcc:192:8
	cmp	r5, r1, asr #2
	bls	.LBB6_10
.Ltmp327:
@ BB#2:
	@DEBUG_VALUE: __copy_m<float>:_Num <- %R5
	@DEBUG_VALUE: allocate:__n <- %R5
	@DEBUG_VALUE: allocate:__n <- %R5
	@DEBUG_VALUE: _M_allocate:__n <- %R5
	@DEBUG_VALUE: _M_allocate_and_copy<__gnu_cxx::__normal_iterator<const float *, std::vector<float, std::allocator<float> > > >:__n <- %R5
	@DEBUG_VALUE: __xlen <- %R5
	@DEBUG_VALUE: capacity:this <- %R4
	@DEBUG_VALUE: size:this <- %R7
	@DEBUG_VALUE: operator=:this <- %R4
	@DEBUG_VALUE: operator=:__x <- %R7
	mov	r7, #0
.Ltmp328:
	.loc	7 170 9                 @ /usr/bin/../lib/gcc/arm-linux-gnueabihf/6.3.0/../../../../include/c++/6.3.0/bits/stl_vector.h:170:9
	cmp	r5, #0
	beq	.LBB6_5
.Ltmp329:
@ BB#3:
	@DEBUG_VALUE: __copy_m<float>:_Num <- %R5
	@DEBUG_VALUE: allocate:__n <- %R5
	@DEBUG_VALUE: allocate:__n <- %R5
	@DEBUG_VALUE: _M_allocate:__n <- %R5
	@DEBUG_VALUE: _M_allocate_and_copy<__gnu_cxx::__normal_iterator<const float *, std::vector<float, std::allocator<float> > > >:__n <- %R5
	@DEBUG_VALUE: __xlen <- %R5
	@DEBUG_VALUE: capacity:this <- %R4
	@DEBUG_VALUE: operator=:this <- %R4
	.loc	10 101 6                @ /usr/bin/../lib/gcc/arm-linux-gnueabihf/6.3.0/../../../../include/c++/6.3.0/ext/new_allocator.h:101:6
	cmp	r5, #1073741824
	bhs	.LBB6_20
.Ltmp330:
@ BB#4:                                 @ %_ZNSt16allocator_traitsISaIfEE8allocateERS0_j.exit.i.i
	@DEBUG_VALUE: __copy_m<float>:_Num <- %R5
	@DEBUG_VALUE: allocate:__n <- %R5
	@DEBUG_VALUE: allocate:__n <- %R5
	@DEBUG_VALUE: _M_allocate:__n <- %R5
	@DEBUG_VALUE: _M_allocate_and_copy<__gnu_cxx::__normal_iterator<const float *, std::vector<float, std::allocator<float> > > >:__n <- %R5
	@DEBUG_VALUE: __xlen <- %R5
	@DEBUG_VALUE: capacity:this <- %R4
	@DEBUG_VALUE: operator=:this <- %R4
	.loc	10 104 27               @ /usr/bin/../lib/gcc/arm-linux-gnueabihf/6.3.0/../../../../include/c++/6.3.0/ext/new_allocator.h:104:27
	mov	r0, r6
	bl	_Znwj
	mov	r7, r0
.Ltmp331:
.LBB6_5:                                @ %_ZNSt12_Vector_baseIfSaIfEE11_M_allocateEj.exit.i
	@DEBUG_VALUE: __copy_m<float>:_Num <- %R5
	@DEBUG_VALUE: allocate:__n <- %R5
	@DEBUG_VALUE: allocate:__n <- %R5
	@DEBUG_VALUE: _M_allocate:__n <- %R5
	@DEBUG_VALUE: _M_allocate_and_copy<__gnu_cxx::__normal_iterator<const float *, std::vector<float, std::allocator<float> > > >:__n <- %R5
	@DEBUG_VALUE: __xlen <- %R5
	@DEBUG_VALUE: capacity:this <- %R4
	@DEBUG_VALUE: operator=:this <- %R4
	@DEBUG_VALUE: uninitialized_copy<__gnu_cxx::__normal_iterator<const float *, std::vector<float, std::allocator<float> > >, float *>:__assignable <- 1
	@DEBUG_VALUE: __copy_move_a<false, const float *, float *>:__simple <- 1
	.file	54 "/usr/bin/../lib/gcc/arm-linux-gnueabihf/6.3.0/../../../../include/c++/6.3.0/bits" "stl_algobase.h"
	.loc	54 367 8                @ /usr/bin/../lib/gcc/arm-linux-gnueabihf/6.3.0/../../../../include/c++/6.3.0/bits/stl_algobase.h:367:8
	cmp	r6, #0
	beq	.LBB6_7
.Ltmp332:
@ BB#6:
	@DEBUG_VALUE: __copy_m<float>:_Num <- %R5
	@DEBUG_VALUE: allocate:__n <- %R5
	@DEBUG_VALUE: allocate:__n <- %R5
	@DEBUG_VALUE: _M_allocate:__n <- %R5
	@DEBUG_VALUE: _M_allocate_and_copy<__gnu_cxx::__normal_iterator<const float *, std::vector<float, std::allocator<float> > > >:__n <- %R5
	@DEBUG_VALUE: __xlen <- %R5
	@DEBUG_VALUE: capacity:this <- %R4
	@DEBUG_VALUE: operator=:this <- %R4
	.loc	54 368 6                @ /usr/bin/../lib/gcc/arm-linux-gnueabihf/6.3.0/../../../../include/c++/6.3.0/bits/stl_algobase.h:368:6
	mov	r0, r7
	mov	r1, r8
	mov	r2, r6
	bl	memmove
.Ltmp333:
	@DEBUG_VALUE: _M_allocate_and_copy<__gnu_cxx::__normal_iterator<const float *, std::vector<float, std::allocator<float> > > >:__result <- %R7
.LBB6_7:                                @ %_ZNSt6vectorIfSaIfEE20_M_allocate_and_copyIN9__gnu_cxx17__normal_iteratorIPKfS1_EEEEPfjT_S9_.exit
	@DEBUG_VALUE: __copy_m<float>:_Num <- %R5
	@DEBUG_VALUE: allocate:__n <- %R5
	@DEBUG_VALUE: allocate:__n <- %R5
	@DEBUG_VALUE: _M_allocate:__n <- %R5
	@DEBUG_VALUE: _M_allocate_and_copy<__gnu_cxx::__normal_iterator<const float *, std::vector<float, std::allocator<float> > > >:__n <- %R5
	@DEBUG_VALUE: __xlen <- %R5
	@DEBUG_VALUE: capacity:this <- %R4
	@DEBUG_VALUE: operator=:this <- %R4
	@DEBUG_VALUE: _M_allocate_and_copy<__gnu_cxx::__normal_iterator<const float *, std::vector<float, std::allocator<float> > > >:this <- %R4
	.loc	53 198 36               @ /usr/bin/../lib/gcc/arm-linux-gnueabihf/6.3.0/../../../../include/c++/6.3.0/bits/vector.tcc:198:36
	ldr	r0, [r4]
.Ltmp334:
	@DEBUG_VALUE: _M_deallocate:__p <- %R0
	@DEBUG_VALUE: deallocate:__p <- %R0
	@DEBUG_VALUE: deallocate:__p <- %R0
	.loc	7 177 6                 @ /usr/bin/../lib/gcc/arm-linux-gnueabihf/6.3.0/../../../../include/c++/6.3.0/bits/stl_vector.h:177:6
	cmp	r0, #0
	beq	.LBB6_9
.Ltmp335:
@ BB#8:
	@DEBUG_VALUE: deallocate:__p <- %R0
	@DEBUG_VALUE: deallocate:__p <- %R0
	@DEBUG_VALUE: _M_deallocate:__p <- %R0
	@DEBUG_VALUE: _M_allocate_and_copy<__gnu_cxx::__normal_iterator<const float *, std::vector<float, std::allocator<float> > > >:this <- %R4
	@DEBUG_VALUE: __copy_m<float>:_Num <- %R5
	@DEBUG_VALUE: allocate:__n <- %R5
	@DEBUG_VALUE: allocate:__n <- %R5
	@DEBUG_VALUE: _M_allocate:__n <- %R5
	@DEBUG_VALUE: _M_allocate_and_copy<__gnu_cxx::__normal_iterator<const float *, std::vector<float, std::allocator<float> > > >:__n <- %R5
	@DEBUG_VALUE: __xlen <- %R5
	@DEBUG_VALUE: capacity:this <- %R4
	@DEBUG_VALUE: operator=:this <- %R4
	.loc	10 110 9                @ /usr/bin/../lib/gcc/arm-linux-gnueabihf/6.3.0/../../../../include/c++/6.3.0/ext/new_allocator.h:110:9
	bl	_ZdlPv
.Ltmp336:
.LBB6_9:                                @ %_ZNSt12_Vector_baseIfSaIfEE13_M_deallocateEPfj.exit
	@DEBUG_VALUE: _M_allocate_and_copy<__gnu_cxx::__normal_iterator<const float *, std::vector<float, std::allocator<float> > > >:this <- %R4
	@DEBUG_VALUE: __copy_m<float>:_Num <- %R5
	@DEBUG_VALUE: allocate:__n <- %R5
	@DEBUG_VALUE: allocate:__n <- %R5
	@DEBUG_VALUE: _M_allocate:__n <- %R5
	@DEBUG_VALUE: _M_allocate_and_copy<__gnu_cxx::__normal_iterator<const float *, std::vector<float, std::allocator<float> > > >:__n <- %R5
	@DEBUG_VALUE: __xlen <- %R5
	@DEBUG_VALUE: capacity:this <- %R4
	@DEBUG_VALUE: operator=:this <- %R4
	.loc	53 201 31               @ /usr/bin/../lib/gcc/arm-linux-gnueabihf/6.3.0/../../../../include/c++/6.3.0/bits/vector.tcc:201:31
	str	r7, [r4]
	.loc	53 202 65               @ /usr/bin/../lib/gcc/arm-linux-gnueabihf/6.3.0/../../../../include/c++/6.3.0/bits/vector.tcc:202:65
	add	r0, r7, r5, lsl #2
	.loc	53 202 40 is_stmt 0     @ /usr/bin/../lib/gcc/arm-linux-gnueabihf/6.3.0/../../../../include/c++/6.3.0/bits/vector.tcc:202:40
	str	r0, [r4, #8]
.Ltmp337:
	.loc	53 218 18 is_stmt 1     @ /usr/bin/../lib/gcc/arm-linux-gnueabihf/6.3.0/../../../../include/c++/6.3.0/bits/vector.tcc:218:18
	add	r9, r4, #4
	b	.LBB6_18
.Ltmp338:
.LBB6_10:
	@DEBUG_VALUE: __copy_m<float>:_Num <- %R5
	@DEBUG_VALUE: allocate:__n <- %R5
	@DEBUG_VALUE: allocate:__n <- %R5
	@DEBUG_VALUE: _M_allocate:__n <- %R5
	@DEBUG_VALUE: _M_allocate_and_copy<__gnu_cxx::__normal_iterator<const float *, std::vector<float, std::allocator<float> > > >:__n <- %R5
	@DEBUG_VALUE: __xlen <- %R5
	@DEBUG_VALUE: capacity:this <- %R4
	@DEBUG_VALUE: size:this <- %R7
	@DEBUG_VALUE: operator=:this <- %R4
	@DEBUG_VALUE: operator=:__x <- %R7
	@DEBUG_VALUE: size:this <- %R4
	.loc	7 656 40                @ /usr/bin/../lib/gcc/arm-linux-gnueabihf/6.3.0/../../../../include/c++/6.3.0/bits/stl_vector.h:656:40
	mov	r9, r4
	ldr	r12, [r9, #4]!
	.loc	7 656 50 is_stmt 0      @ /usr/bin/../lib/gcc/arm-linux-gnueabihf/6.3.0/../../../../include/c++/6.3.0/bits/stl_vector.h:656:50
	sub	r2, r12, r0
	asr	r1, r2, #2
.Ltmp339:
	.loc	53 204 13 is_stmt 1     @ /usr/bin/../lib/gcc/arm-linux-gnueabihf/6.3.0/../../../../include/c++/6.3.0/bits/vector.tcc:204:13
	cmp	r1, r5
	bhs	.LBB6_15
.Ltmp340:
@ BB#11:
	@DEBUG_VALUE: size:this <- %R4
	@DEBUG_VALUE: __copy_m<float>:_Num <- %R5
	@DEBUG_VALUE: allocate:__n <- %R5
	@DEBUG_VALUE: allocate:__n <- %R5
	@DEBUG_VALUE: _M_allocate:__n <- %R5
	@DEBUG_VALUE: _M_allocate_and_copy<__gnu_cxx::__normal_iterator<const float *, std::vector<float, std::allocator<float> > > >:__n <- %R5
	@DEBUG_VALUE: __xlen <- %R5
	@DEBUG_VALUE: capacity:this <- %R4
	@DEBUG_VALUE: size:this <- %R7
	@DEBUG_VALUE: operator=:this <- %R4
	@DEBUG_VALUE: operator=:__x <- %R7
	@DEBUG_VALUE: __copy_move_a<false, float *, float *>:__simple <- 1
	.loc	54 367 8                @ /usr/bin/../lib/gcc/arm-linux-gnueabihf/6.3.0/../../../../include/c++/6.3.0/bits/stl_algobase.h:367:8
	cmp	r2, #0
	beq	.LBB6_13
.Ltmp341:
@ BB#12:
	@DEBUG_VALUE: size:this <- %R4
	@DEBUG_VALUE: __copy_m<float>:_Num <- %R5
	@DEBUG_VALUE: allocate:__n <- %R5
	@DEBUG_VALUE: allocate:__n <- %R5
	@DEBUG_VALUE: _M_allocate:__n <- %R5
	@DEBUG_VALUE: _M_allocate_and_copy<__gnu_cxx::__normal_iterator<const float *, std::vector<float, std::allocator<float> > > >:__n <- %R5
	@DEBUG_VALUE: __xlen <- %R5
	@DEBUG_VALUE: capacity:this <- %R4
	@DEBUG_VALUE: size:this <- %R7
	@DEBUG_VALUE: operator=:this <- %R4
	@DEBUG_VALUE: operator=:__x <- %R7
	.loc	54 368 6                @ /usr/bin/../lib/gcc/arm-linux-gnueabihf/6.3.0/../../../../include/c++/6.3.0/bits/stl_algobase.h:368:6
	mov	r1, r8
	bl	memmove
.Ltmp342:
	@DEBUG_VALUE: size:this <- %R4
	.loc	53 213 48               @ /usr/bin/../lib/gcc/arm-linux-gnueabihf/6.3.0/../../../../include/c++/6.3.0/bits/vector.tcc:213:48
	ldr	r8, [r7]
	.loc	53 214 20               @ /usr/bin/../lib/gcc/arm-linux-gnueabihf/6.3.0/../../../../include/c++/6.3.0/bits/vector.tcc:214:20
	ldr	r3, [r7, #4]
.Ltmp343:
	.loc	7 656 66                @ /usr/bin/../lib/gcc/arm-linux-gnueabihf/6.3.0/../../../../include/c++/6.3.0/bits/stl_vector.h:656:66
	ldm	r4, {r0, r12}
.Ltmp344:
.LBB6_13:                               @ %_ZSt4copyIPfS0_ET0_T_S2_S1_.exit
	@DEBUG_VALUE: size:this <- %R4
	@DEBUG_VALUE: __copy_m<float>:_Num <- %R5
	@DEBUG_VALUE: allocate:__n <- %R5
	@DEBUG_VALUE: allocate:__n <- %R5
	@DEBUG_VALUE: _M_allocate:__n <- %R5
	@DEBUG_VALUE: _M_allocate_and_copy<__gnu_cxx::__normal_iterator<const float *, std::vector<float, std::allocator<float> > > >:__n <- %R5
	@DEBUG_VALUE: __xlen <- %R5
	@DEBUG_VALUE: capacity:this <- %R4
	@DEBUG_VALUE: size:this <- %R7
	@DEBUG_VALUE: operator=:this <- %R4
	@DEBUG_VALUE: operator=:__x <- %R7
	.loc	7 656 50 is_stmt 0      @ /usr/bin/../lib/gcc/arm-linux-gnueabihf/6.3.0/../../../../include/c++/6.3.0/bits/stl_vector.h:656:50
	sub	r0, r12, r0
.Ltmp345:
	.loc	53 213 57 is_stmt 1     @ /usr/bin/../lib/gcc/arm-linux-gnueabihf/6.3.0/../../../../include/c++/6.3.0/bits/vector.tcc:213:57
	add	r1, r8, r0
.Ltmp346:
	@DEBUG_VALUE: __copy_m<float>:__first <- %R1
	@DEBUG_VALUE: __copy_move_a<false, float *, float *>:__simple <- 1
	@DEBUG_VALUE: __copy_move_a<false, float *, float *>:__first <- %R1
	@DEBUG_VALUE: __copy_move_a2<false, float *, float *>:__first <- %R1
	@DEBUG_VALUE: copy<float *, float *>:__first <- %R1
	@DEBUG_VALUE: __uninit_copy<float *, float *>:__first <- %R1
	@DEBUG_VALUE: uninitialized_copy<float *, float *>:__assignable <- 1
	@DEBUG_VALUE: uninitialized_copy<float *, float *>:__first <- %R1
	@DEBUG_VALUE: __uninitialized_copy_a<float *, float *, float>:__first <- %R1
	.loc	54 366 34               @ /usr/bin/../lib/gcc/arm-linux-gnueabihf/6.3.0/../../../../include/c++/6.3.0/bits/stl_algobase.h:366:34
	subs	r2, r3, r1
	beq	.LBB6_18
.Ltmp347:
@ BB#14:
	@DEBUG_VALUE: __uninitialized_copy_a<float *, float *, float>:__first <- %R1
	@DEBUG_VALUE: uninitialized_copy<float *, float *>:__first <- %R1
	@DEBUG_VALUE: __uninit_copy<float *, float *>:__first <- %R1
	@DEBUG_VALUE: copy<float *, float *>:__first <- %R1
	@DEBUG_VALUE: __copy_move_a2<false, float *, float *>:__first <- %R1
	@DEBUG_VALUE: __copy_move_a<false, float *, float *>:__first <- %R1
	@DEBUG_VALUE: __copy_m<float>:__first <- %R1
	@DEBUG_VALUE: size:this <- %R4
	@DEBUG_VALUE: __copy_m<float>:_Num <- %R5
	@DEBUG_VALUE: allocate:__n <- %R5
	@DEBUG_VALUE: allocate:__n <- %R5
	@DEBUG_VALUE: _M_allocate:__n <- %R5
	@DEBUG_VALUE: _M_allocate_and_copy<__gnu_cxx::__normal_iterator<const float *, std::vector<float, std::allocator<float> > > >:__n <- %R5
	@DEBUG_VALUE: __xlen <- %R5
	@DEBUG_VALUE: capacity:this <- %R4
	@DEBUG_VALUE: size:this <- %R7
	@DEBUG_VALUE: operator=:this <- %R4
	@DEBUG_VALUE: operator=:__x <- %R7
	.loc	54 368 6                @ /usr/bin/../lib/gcc/arm-linux-gnueabihf/6.3.0/../../../../include/c++/6.3.0/bits/stl_algobase.h:368:6
	mov	r0, r12
	b	.LBB6_17
.Ltmp348:
.LBB6_15:
	@DEBUG_VALUE: size:this <- %R4
	@DEBUG_VALUE: __copy_m<float>:_Num <- %R5
	@DEBUG_VALUE: allocate:__n <- %R5
	@DEBUG_VALUE: allocate:__n <- %R5
	@DEBUG_VALUE: _M_allocate:__n <- %R5
	@DEBUG_VALUE: _M_allocate_and_copy<__gnu_cxx::__normal_iterator<const float *, std::vector<float, std::allocator<float> > > >:__n <- %R5
	@DEBUG_VALUE: __xlen <- %R5
	@DEBUG_VALUE: capacity:this <- %R4
	@DEBUG_VALUE: size:this <- %R7
	@DEBUG_VALUE: operator=:this <- %R4
	@DEBUG_VALUE: operator=:__x <- %R7
	@DEBUG_VALUE: __copy_move_a<false, const float *, float *>:__simple <- 1
	.loc	54 367 8                @ /usr/bin/../lib/gcc/arm-linux-gnueabihf/6.3.0/../../../../include/c++/6.3.0/bits/stl_algobase.h:367:8
	cmp	r5, #0
	beq	.LBB6_18
.Ltmp349:
@ BB#16:
	@DEBUG_VALUE: size:this <- %R4
	@DEBUG_VALUE: __copy_m<float>:_Num <- %R5
	@DEBUG_VALUE: allocate:__n <- %R5
	@DEBUG_VALUE: allocate:__n <- %R5
	@DEBUG_VALUE: _M_allocate:__n <- %R5
	@DEBUG_VALUE: _M_allocate_and_copy<__gnu_cxx::__normal_iterator<const float *, std::vector<float, std::allocator<float> > > >:__n <- %R5
	@DEBUG_VALUE: __xlen <- %R5
	@DEBUG_VALUE: capacity:this <- %R4
	@DEBUG_VALUE: size:this <- %R7
	@DEBUG_VALUE: operator=:this <- %R4
	@DEBUG_VALUE: operator=:__x <- %R7
	.loc	54 368 6                @ /usr/bin/../lib/gcc/arm-linux-gnueabihf/6.3.0/../../../../include/c++/6.3.0/bits/stl_algobase.h:368:6
	mov	r1, r8
	mov	r2, r6
.Ltmp350:
.LBB6_17:                               @ %_ZSt22__uninitialized_copy_aIPfS0_fET0_T_S2_S1_RSaIT1_E.exit
	@DEBUG_VALUE: size:this <- %R4
	@DEBUG_VALUE: __copy_m<float>:_Num <- %R5
	@DEBUG_VALUE: allocate:__n <- %R5
	@DEBUG_VALUE: allocate:__n <- %R5
	@DEBUG_VALUE: _M_allocate:__n <- %R5
	@DEBUG_VALUE: _M_allocate_and_copy<__gnu_cxx::__normal_iterator<const float *, std::vector<float, std::allocator<float> > > >:__n <- %R5
	@DEBUG_VALUE: __xlen <- %R5
	@DEBUG_VALUE: capacity:this <- %R4
	@DEBUG_VALUE: size:this <- %R7
	@DEBUG_VALUE: operator=:this <- %R4
	@DEBUG_VALUE: operator=:__x <- %R7
	.loc	54 368 6 is_stmt 0      @ /usr/bin/../lib/gcc/arm-linux-gnueabihf/6.3.0/../../../../include/c++/6.3.0/bits/stl_algobase.h:368:6
	bl	memmove
.Ltmp351:
.LBB6_18:                               @ %_ZSt22__uninitialized_copy_aIPfS0_fET0_T_S2_S1_RSaIT1_E.exit
	@DEBUG_VALUE: __copy_m<float>:_Num <- %R5
	@DEBUG_VALUE: allocate:__n <- %R5
	@DEBUG_VALUE: allocate:__n <- %R5
	@DEBUG_VALUE: _M_allocate:__n <- %R5
	@DEBUG_VALUE: _M_allocate_and_copy<__gnu_cxx::__normal_iterator<const float *, std::vector<float, std::allocator<float> > > >:__n <- %R5
	@DEBUG_VALUE: __xlen <- %R5
	@DEBUG_VALUE: capacity:this <- %R4
	@DEBUG_VALUE: operator=:this <- %R4
	.loc	53 218 44 is_stmt 1     @ /usr/bin/../lib/gcc/arm-linux-gnueabihf/6.3.0/../../../../include/c++/6.3.0/bits/vector.tcc:218:44
	ldr	r0, [r4]
	.loc	53 218 53 is_stmt 0     @ /usr/bin/../lib/gcc/arm-linux-gnueabihf/6.3.0/../../../../include/c++/6.3.0/bits/vector.tcc:218:53
	add	r0, r0, r5, lsl #2
	.loc	53 218 28               @ /usr/bin/../lib/gcc/arm-linux-gnueabihf/6.3.0/../../../../include/c++/6.3.0/bits/vector.tcc:218:28
	str	r0, [r9]
.Ltmp352:
.LBB6_19:
	@DEBUG_VALUE: operator=:this <- %R4
	.loc	53 220 7 is_stmt 1      @ /usr/bin/../lib/gcc/arm-linux-gnueabihf/6.3.0/../../../../include/c++/6.3.0/bits/vector.tcc:220:7
	mov	r0, r4
	pop	{r4, r5, r6, r7, r8, r9, r11, pc}
.Ltmp353:
.LBB6_20:
	@DEBUG_VALUE: __copy_m<float>:_Num <- %R5
	@DEBUG_VALUE: allocate:__n <- %R5
	@DEBUG_VALUE: allocate:__n <- %R5
	@DEBUG_VALUE: _M_allocate:__n <- %R5
	@DEBUG_VALUE: _M_allocate_and_copy<__gnu_cxx::__normal_iterator<const float *, std::vector<float, std::allocator<float> > > >:__n <- %R5
	@DEBUG_VALUE: __xlen <- %R5
	@DEBUG_VALUE: capacity:this <- %R4
	@DEBUG_VALUE: operator=:this <- %R4
	.loc	10 102 4                @ /usr/bin/../lib/gcc/arm-linux-gnueabihf/6.3.0/../../../../include/c++/6.3.0/ext/new_allocator.h:102:4
	mov	lr, pc
	b	_ZSt17__throw_bad_allocv
.Ltmp354:
.Lfunc_end6:
	.size	_ZNSt6vectorIfSaIfEEaSERKS1_, .Lfunc_end6-_ZNSt6vectorIfSaIfEEaSERKS1_
	.cfi_endproc
	.file	55 "/usr/bin/../lib/gcc/arm-linux-gnueabihf/6.3.0/../../../../include/c++/6.3.0/bits" "stl_uninitialized.h"
	.fnend

	.section	.text._ZNSt6vectorIfSaIfEE17_M_default_appendEj,"axG",%progbits,_ZNSt6vectorIfSaIfEE17_M_default_appendEj,comdat
	.weak	_ZNSt6vectorIfSaIfEE17_M_default_appendEj
	.p2align	2
	.type	_ZNSt6vectorIfSaIfEE17_M_default_appendEj,%function
_ZNSt6vectorIfSaIfEE17_M_default_appendEj: @ @_ZNSt6vectorIfSaIfEE17_M_default_appendEj
.Lfunc_begin7:
	.loc	53 542 0                @ /usr/bin/../lib/gcc/arm-linux-gnueabihf/6.3.0/../../../../include/c++/6.3.0/bits/vector.tcc:542:0
	.fnstart
	.cfi_startproc
@ BB#0:
	.save	{r4, r5, r6, r7, r8, r10, r11, lr}
	push	{r4, r5, r6, r7, r8, r10, r11, lr}
.Ltmp355:
	.cfi_def_cfa_offset 32
.Ltmp356:
	.cfi_offset lr, -4
.Ltmp357:
	.cfi_offset r11, -8
.Ltmp358:
	.cfi_offset r10, -12
.Ltmp359:
	.cfi_offset r8, -16
.Ltmp360:
	.cfi_offset r7, -20
.Ltmp361:
	.cfi_offset r6, -24
.Ltmp362:
	.cfi_offset r5, -28
.Ltmp363:
	.cfi_offset r4, -32
	.setfp	r11, sp, #24
	add	r11, sp, #24
.Ltmp364:
	.cfi_def_cfa r11, 8
	@DEBUG_VALUE: _M_default_append:this <- %R0
	@DEBUG_VALUE: _M_default_append:__n <- %R1
	mov	r5, r1
.Ltmp365:
	@DEBUG_VALUE: _M_default_append:__n <- %R5
	mov	r4, r0
.Ltmp366:
	@DEBUG_VALUE: _M_default_append:this <- %R4
	.loc	53 543 11 prologue_end  @ /usr/bin/../lib/gcc/arm-linux-gnueabihf/6.3.0/../../../../include/c++/6.3.0/bits/vector.tcc:543:11
	cmp	r5, #0
	beq	.LBB7_11
.Ltmp367:
@ BB#1:
	@DEBUG_VALUE: _M_default_append:this <- %R4
	@DEBUG_VALUE: _M_default_append:__n <- %R5
	@DEBUG_VALUE: __fill_n_a<float *, unsigned int, float>:__first <- %R7
	@DEBUG_VALUE: fill_n<float *, unsigned int, float>:__first <- %R7
	@DEBUG_VALUE: __uninit_default_n<float *, unsigned int>:__first <- %R7
	@DEBUG_VALUE: __uninitialized_default_n<float *, unsigned int>:__first <- %R7
	@DEBUG_VALUE: __uninitialized_default_n_a<float *, unsigned int, float>:__first <- %R7
	.loc	53 546 20               @ /usr/bin/../lib/gcc/arm-linux-gnueabihf/6.3.0/../../../../include/c++/6.3.0/bits/vector.tcc:546:20
	ldr	r7, [r4, #4]
.Ltmp368:
	.loc	53 545 32               @ /usr/bin/../lib/gcc/arm-linux-gnueabihf/6.3.0/../../../../include/c++/6.3.0/bits/vector.tcc:545:32
	ldr	r0, [r4, #8]
	.loc	53 546 4                @ /usr/bin/../lib/gcc/arm-linux-gnueabihf/6.3.0/../../../../include/c++/6.3.0/bits/vector.tcc:546:4
	sub	r0, r0, r7
	asr	r0, r0, #2
.Ltmp369:
	.loc	53 545 8                @ /usr/bin/../lib/gcc/arm-linux-gnueabihf/6.3.0/../../../../include/c++/6.3.0/bits/vector.tcc:545:8
	cmp	r0, r5
	bhs	.LBB7_12
.Ltmp370:
@ BB#2:
	@DEBUG_VALUE: _M_default_append:this <- %R4
	@DEBUG_VALUE: _M_default_append:__n <- %R5
	@DEBUG_VALUE: size:this <- %R4
	.loc	7 656 66                @ /usr/bin/../lib/gcc/arm-linux-gnueabihf/6.3.0/../../../../include/c++/6.3.0/bits/stl_vector.h:656:66
	ldr	r1, [r4]
.Ltmp371:
	.loc	7 1422 17               @ /usr/bin/../lib/gcc/arm-linux-gnueabihf/6.3.0/../../../../include/c++/6.3.0/bits/stl_vector.h:1422:17
	mvn	r8, #-1073741824
.Ltmp372:
	.loc	7 656 50                @ /usr/bin/../lib/gcc/arm-linux-gnueabihf/6.3.0/../../../../include/c++/6.3.0/bits/stl_vector.h:656:50
	sub	r0, r7, r1
.Ltmp373:
	.loc	7 1422 17               @ /usr/bin/../lib/gcc/arm-linux-gnueabihf/6.3.0/../../../../include/c++/6.3.0/bits/stl_vector.h:1422:17
	sub	r2, r8, r0, asr #2
.Ltmp374:
	@DEBUG_VALUE: _M_check_len:__n <- %R5
	.loc	7 1422 6 is_stmt 0      @ /usr/bin/../lib/gcc/arm-linux-gnueabihf/6.3.0/../../../../include/c++/6.3.0/bits/stl_vector.h:1422:6
	cmp	r2, r5
	blo	.LBB7_13
.Ltmp375:
@ BB#3:                                 @ %_ZNKSt6vectorIfSaIfEE12_M_check_lenEjPKc.exit
	@DEBUG_VALUE: _M_check_len:__n <- %R5
	@DEBUG_VALUE: size:this <- %R4
	@DEBUG_VALUE: _M_default_append:this <- %R4
	@DEBUG_VALUE: _M_default_append:__n <- %R5
	.loc	7 656 50 is_stmt 1      @ /usr/bin/../lib/gcc/arm-linux-gnueabihf/6.3.0/../../../../include/c++/6.3.0/bits/stl_vector.h:656:50
	asr	r0, r0, #2
.Ltmp376:
	.loc	7 1425 35               @ /usr/bin/../lib/gcc/arm-linux-gnueabihf/6.3.0/../../../../include/c++/6.3.0/bits/stl_vector.h:1425:35
	cmp	r0, r5
	mov	r2, r0
	mov	r6, #0
	movlo	r2, r5
	add	r0, r2, r0
	.loc	7 1426 25               @ /usr/bin/../lib/gcc/arm-linux-gnueabihf/6.3.0/../../../../include/c++/6.3.0/bits/stl_vector.h:1426:25
	cmp	r6, r0, lsr #30
	mov	r3, r0
	mvnne	r3, #-1073741824
	cmp	r0, r2
	movhs	r8, r3
.Ltmp377:
	@DEBUG_VALUE: _M_allocate:__n <- %R8
	@DEBUG_VALUE: __len <- %R8
	@DEBUG_VALUE: allocate:__n <- %R8
	@DEBUG_VALUE: allocate:__n <- %R8
	.loc	7 170 9                 @ /usr/bin/../lib/gcc/arm-linux-gnueabihf/6.3.0/../../../../include/c++/6.3.0/bits/stl_vector.h:170:9
	cmp	r8, #0
.Ltmp378:
	@DEBUG_VALUE: _M_check_len:__len <- %R0
	beq	.LBB7_6
.Ltmp379:
@ BB#4:
	@DEBUG_VALUE: _M_check_len:__len <- %R0
	@DEBUG_VALUE: allocate:__n <- %R8
	@DEBUG_VALUE: allocate:__n <- %R8
	@DEBUG_VALUE: __len <- %R8
	@DEBUG_VALUE: _M_allocate:__n <- %R8
	@DEBUG_VALUE: _M_check_len:__n <- %R5
	@DEBUG_VALUE: size:this <- %R4
	@DEBUG_VALUE: _M_default_append:this <- %R4
	@DEBUG_VALUE: _M_default_append:__n <- %R5
	.loc	10 101 6                @ /usr/bin/../lib/gcc/arm-linux-gnueabihf/6.3.0/../../../../include/c++/6.3.0/ext/new_allocator.h:101:6
	cmp	r8, #1073741824
	bhs	.LBB7_14
.Ltmp380:
@ BB#5:                                 @ %_ZNSt16allocator_traitsISaIfEE8allocateERS0_j.exit.i
	@DEBUG_VALUE: _M_check_len:__len <- %R0
	@DEBUG_VALUE: allocate:__n <- %R8
	@DEBUG_VALUE: allocate:__n <- %R8
	@DEBUG_VALUE: __len <- %R8
	@DEBUG_VALUE: _M_allocate:__n <- %R8
	@DEBUG_VALUE: _M_check_len:__n <- %R5
	@DEBUG_VALUE: size:this <- %R4
	@DEBUG_VALUE: _M_default_append:this <- %R4
	@DEBUG_VALUE: _M_default_append:__n <- %R5
	.loc	10 104 46               @ /usr/bin/../lib/gcc/arm-linux-gnueabihf/6.3.0/../../../../include/c++/6.3.0/ext/new_allocator.h:104:46
	lsl	r0, r8, #2
.Ltmp381:
	.loc	10 104 27 is_stmt 0     @ /usr/bin/../lib/gcc/arm-linux-gnueabihf/6.3.0/../../../../include/c++/6.3.0/ext/new_allocator.h:104:27
	bl	_Znwj
.Ltmp382:
	.loc	53 563 22 is_stmt 1     @ /usr/bin/../lib/gcc/arm-linux-gnueabihf/6.3.0/../../../../include/c++/6.3.0/bits/vector.tcc:563:22
	ldm	r4, {r1, r7}
.Ltmp383:
	@DEBUG_VALUE: size:this <- %R4
	.loc	10 104 27               @ /usr/bin/../lib/gcc/arm-linux-gnueabihf/6.3.0/../../../../include/c++/6.3.0/ext/new_allocator.h:104:27
	mov	r6, r0
.Ltmp384:
.LBB7_6:                                @ %_ZNSt12_Vector_baseIfSaIfEE11_M_allocateEj.exit
	@DEBUG_VALUE: allocate:__n <- %R8
	@DEBUG_VALUE: allocate:__n <- %R8
	@DEBUG_VALUE: __len <- %R8
	@DEBUG_VALUE: _M_allocate:__n <- %R8
	@DEBUG_VALUE: _M_check_len:__n <- %R5
	@DEBUG_VALUE: size:this <- %R4
	@DEBUG_VALUE: _M_default_append:this <- %R4
	@DEBUG_VALUE: _M_default_append:__n <- %R5
	@DEBUG_VALUE: __uninitialized_move_if_noexcept_a<float *, float *, std::allocator<float> >:__first <- %R1
	@DEBUG_VALUE: uninitialized_copy<std::move_iterator<float *>, float *>:__assignable <- 1
	@DEBUG_VALUE: __copy_move_a<true, float *, float *>:__simple <- 1
	.loc	54 366 34               @ /usr/bin/../lib/gcc/arm-linux-gnueabihf/6.3.0/../../../../include/c++/6.3.0/bits/stl_algobase.h:366:34
	sub	r2, r7, r1
	mov	r0, #0
	asr	r7, r2, #2
.Ltmp385:
	@DEBUG_VALUE: __copy_m<float>:_Num <- %R7
	.loc	54 367 8                @ /usr/bin/../lib/gcc/arm-linux-gnueabihf/6.3.0/../../../../include/c++/6.3.0/bits/stl_algobase.h:367:8
	cmp	r0, r2, asr #2
	beq	.LBB7_8
.Ltmp386:
@ BB#7:
	@DEBUG_VALUE: __copy_m<float>:_Num <- %R7
	@DEBUG_VALUE: __uninitialized_move_if_noexcept_a<float *, float *, std::allocator<float> >:__first <- %R1
	@DEBUG_VALUE: allocate:__n <- %R8
	@DEBUG_VALUE: allocate:__n <- %R8
	@DEBUG_VALUE: __len <- %R8
	@DEBUG_VALUE: _M_allocate:__n <- %R8
	@DEBUG_VALUE: _M_check_len:__n <- %R5
	@DEBUG_VALUE: size:this <- %R4
	@DEBUG_VALUE: _M_default_append:this <- %R4
	@DEBUG_VALUE: _M_default_append:__n <- %R5
	.loc	54 368 6                @ /usr/bin/../lib/gcc/arm-linux-gnueabihf/6.3.0/../../../../include/c++/6.3.0/bits/stl_algobase.h:368:6
	mov	r0, r6
	bl	memmove
.Ltmp387:
	@DEBUG_VALUE: __uninitialized_move_if_noexcept_a<float *, float *, std::allocator<float> >:__result <- %R6
.LBB7_8:
	@DEBUG_VALUE: __copy_m<float>:_Num <- %R7
	@DEBUG_VALUE: allocate:__n <- %R8
	@DEBUG_VALUE: allocate:__n <- %R8
	@DEBUG_VALUE: __len <- %R8
	@DEBUG_VALUE: _M_allocate:__n <- %R8
	@DEBUG_VALUE: _M_check_len:__n <- %R5
	@DEBUG_VALUE: size:this <- %R4
	@DEBUG_VALUE: _M_default_append:this <- %R4
	@DEBUG_VALUE: _M_default_append:__n <- %R5
	.loc	54 369 20               @ /usr/bin/../lib/gcc/arm-linux-gnueabihf/6.3.0/../../../../include/c++/6.3.0/bits/stl_algobase.h:369:20
	add	r7, r6, r7, lsl #2
.Ltmp388:
	@DEBUG_VALUE: __niter <- %R5
	@DEBUG_VALUE: __fill_n_a<float *, unsigned int, float>:__first <- %R7
	@DEBUG_VALUE: fill_n<float *, unsigned int, float>:__first <- %R7
	@DEBUG_VALUE: __uninit_default_n<float *, unsigned int>:__first <- %R7
	@DEBUG_VALUE: __uninitialized_default_n<float *, unsigned int>:__assignable <- 1
	@DEBUG_VALUE: __uninitialized_default_n<float *, unsigned int>:__first <- %R7
	@DEBUG_VALUE: __uninitialized_default_n_a<float *, unsigned int, float>:__first <- %R7
	@DEBUG_VALUE: __new_finish <- %R7
	.loc	54 754 11               @ /usr/bin/../lib/gcc/arm-linux-gnueabihf/6.3.0/../../../../include/c++/6.3.0/bits/stl_algobase.h:754:11
	lsl	r2, r5, #2
	mov	r1, #0
	mov	r0, r7
	bl	memset
.Ltmp389:
	.loc	53 578 36               @ /usr/bin/../lib/gcc/arm-linux-gnueabihf/6.3.0/../../../../include/c++/6.3.0/bits/vector.tcc:578:36
	ldr	r0, [r4]
.Ltmp390:
	@DEBUG_VALUE: _M_deallocate:__p <- %R0
	@DEBUG_VALUE: deallocate:__p <- %R0
	@DEBUG_VALUE: deallocate:__p <- %R0
	.loc	54 754 11               @ /usr/bin/../lib/gcc/arm-linux-gnueabihf/6.3.0/../../../../include/c++/6.3.0/bits/stl_algobase.h:754:11
	add	r5, r7, r5, lsl #2
.Ltmp391:
	@DEBUG_VALUE: __new_finish <- %R5
	.loc	7 177 6                 @ /usr/bin/../lib/gcc/arm-linux-gnueabihf/6.3.0/../../../../include/c++/6.3.0/bits/stl_vector.h:177:6
	cmp	r0, #0
	beq	.LBB7_10
.Ltmp392:
@ BB#9:
	@DEBUG_VALUE: __new_finish <- %R5
	@DEBUG_VALUE: deallocate:__p <- %R0
	@DEBUG_VALUE: deallocate:__p <- %R0
	@DEBUG_VALUE: _M_deallocate:__p <- %R0
	@DEBUG_VALUE: __uninitialized_default_n_a<float *, unsigned int, float>:__first <- %R7
	@DEBUG_VALUE: __uninitialized_default_n<float *, unsigned int>:__first <- %R7
	@DEBUG_VALUE: __uninit_default_n<float *, unsigned int>:__first <- %R7
	@DEBUG_VALUE: fill_n<float *, unsigned int, float>:__first <- %R7
	@DEBUG_VALUE: __fill_n_a<float *, unsigned int, float>:__first <- %R7
	@DEBUG_VALUE: allocate:__n <- %R8
	@DEBUG_VALUE: allocate:__n <- %R8
	@DEBUG_VALUE: __len <- %R8
	@DEBUG_VALUE: _M_allocate:__n <- %R8
	@DEBUG_VALUE: size:this <- %R4
	@DEBUG_VALUE: _M_default_append:this <- %R4
	.loc	10 110 9                @ /usr/bin/../lib/gcc/arm-linux-gnueabihf/6.3.0/../../../../include/c++/6.3.0/ext/new_allocator.h:110:9
	bl	_ZdlPv
.Ltmp393:
.LBB7_10:                               @ %_ZNSt12_Vector_baseIfSaIfEE13_M_deallocateEPfj.exit31
	@DEBUG_VALUE: __new_finish <- %R5
	@DEBUG_VALUE: __uninitialized_default_n_a<float *, unsigned int, float>:__first <- %R7
	@DEBUG_VALUE: __uninitialized_default_n<float *, unsigned int>:__first <- %R7
	@DEBUG_VALUE: __uninit_default_n<float *, unsigned int>:__first <- %R7
	@DEBUG_VALUE: fill_n<float *, unsigned int, float>:__first <- %R7
	@DEBUG_VALUE: __fill_n_a<float *, unsigned int, float>:__first <- %R7
	@DEBUG_VALUE: allocate:__n <- %R8
	@DEBUG_VALUE: allocate:__n <- %R8
	@DEBUG_VALUE: __len <- %R8
	@DEBUG_VALUE: _M_allocate:__n <- %R8
	@DEBUG_VALUE: size:this <- %R4
	@DEBUG_VALUE: _M_default_append:this <- %R4
	.loc	53 581 31               @ /usr/bin/../lib/gcc/arm-linux-gnueabihf/6.3.0/../../../../include/c++/6.3.0/bits/vector.tcc:581:31
	str	r6, [r4]
	.loc	53 583 54               @ /usr/bin/../lib/gcc/arm-linux-gnueabihf/6.3.0/../../../../include/c++/6.3.0/bits/vector.tcc:583:54
	add	r0, r6, r8, lsl #2
	.loc	53 582 32               @ /usr/bin/../lib/gcc/arm-linux-gnueabihf/6.3.0/../../../../include/c++/6.3.0/bits/vector.tcc:582:32
	str	r5, [r4, #4]
	.loc	53 583 40               @ /usr/bin/../lib/gcc/arm-linux-gnueabihf/6.3.0/../../../../include/c++/6.3.0/bits/vector.tcc:583:40
	str	r0, [r4, #8]
.Ltmp394:
.LBB7_11:
	@DEBUG_VALUE: _M_default_append:this <- %R4
	.loc	53 586 5 discriminator 2 @ /usr/bin/../lib/gcc/arm-linux-gnueabihf/6.3.0/../../../../include/c++/6.3.0/bits/vector.tcc:586:5
	pop	{r4, r5, r6, r7, r8, r10, r11, pc}
.Ltmp395:
.LBB7_12:                               @ %_ZSt27__uninitialized_default_n_aIPfjfET_S1_T0_RSaIT1_E.exit
	@DEBUG_VALUE: _M_default_append:this <- %R4
	@DEBUG_VALUE: _M_default_append:__n <- %R5
	@DEBUG_VALUE: __uninitialized_default_n<float *, unsigned int>:__assignable <- 1
	@DEBUG_VALUE: __niter <- %R5
	.loc	54 754 11               @ /usr/bin/../lib/gcc/arm-linux-gnueabihf/6.3.0/../../../../include/c++/6.3.0/bits/stl_algobase.h:754:11
	lsl	r2, r5, #2
	mov	r0, r7
	mov	r1, #0
	bl	memset
	add	r0, r7, r5, lsl #2
.Ltmp396:
	.loc	53 548 32               @ /usr/bin/../lib/gcc/arm-linux-gnueabihf/6.3.0/../../../../include/c++/6.3.0/bits/vector.tcc:548:32
	str	r0, [r4, #4]
.Ltmp397:
	.loc	53 586 5 discriminator 2 @ /usr/bin/../lib/gcc/arm-linux-gnueabihf/6.3.0/../../../../include/c++/6.3.0/bits/vector.tcc:586:5
	pop	{r4, r5, r6, r7, r8, r10, r11, pc}
.Ltmp398:
.LBB7_13:
	@DEBUG_VALUE: _M_check_len:__n <- %R5
	@DEBUG_VALUE: size:this <- %R4
	@DEBUG_VALUE: _M_default_append:this <- %R4
	@DEBUG_VALUE: _M_default_append:__n <- %R5
	.loc	7 1423 4                @ /usr/bin/../lib/gcc/arm-linux-gnueabihf/6.3.0/../../../../include/c++/6.3.0/bits/stl_vector.h:1423:4
	movw	r0, :lower16:.L.str.8
	movt	r0, :upper16:.L.str.8
.Ltmp399:
	@DEBUG_VALUE: _M_check_len:__s <- %R0
	mov	lr, pc
	b	_ZSt20__throw_length_errorPKc
.Ltmp400:
.LBB7_14:
	@DEBUG_VALUE: _M_check_len:__len <- %R0
	@DEBUG_VALUE: allocate:__n <- %R8
	@DEBUG_VALUE: allocate:__n <- %R8
	@DEBUG_VALUE: __len <- %R8
	@DEBUG_VALUE: _M_allocate:__n <- %R8
	@DEBUG_VALUE: _M_check_len:__n <- %R5
	@DEBUG_VALUE: size:this <- %R4
	@DEBUG_VALUE: _M_default_append:this <- %R4
	@DEBUG_VALUE: _M_default_append:__n <- %R5
	.loc	10 102 4                @ /usr/bin/../lib/gcc/arm-linux-gnueabihf/6.3.0/../../../../include/c++/6.3.0/ext/new_allocator.h:102:4
	mov	lr, pc
	b	_ZSt17__throw_bad_allocv
.Ltmp401:
.Lfunc_end7:
	.size	_ZNSt6vectorIfSaIfEE17_M_default_appendEj, .Lfunc_end7-_ZNSt6vectorIfSaIfEE17_M_default_appendEj
	.cfi_endproc
	.file	56 "/usr/bin/../lib/gcc/arm-linux-gnueabihf/6.3.0/../../../../include/c++/6.3.0/ext" "type_traits.h"
	.fnend

	.section	.text.startup,"ax",%progbits
	.p2align	2
	.type	_GLOBAL__sub_I_render.ii,%function
_GLOBAL__sub_I_render.ii:               @ @_GLOBAL__sub_I_render.ii
.Lfunc_begin8:
	.loc	49 0 0                  @ /root/Bela/projects/granular_delay/build/render.cpp:0:0
	.fnstart
	.cfi_startproc
@ BB#0:
	.save	{r4, r5, r6, r7, r11, lr}
	push	{r4, r5, r6, r7, r11, lr}
.Ltmp405:
	.cfi_def_cfa_offset 24
.Ltmp406:
	.cfi_offset lr, -4
.Ltmp407:
	.cfi_offset r11, -8
.Ltmp408:
	.cfi_offset r7, -12
.Ltmp409:
	.cfi_offset r6, -16
.Ltmp410:
	.cfi_offset r5, -20
.Ltmp411:
	.cfi_offset r4, -24
	.setfp	r11, sp, #16
	add	r11, sp, #16
.Ltmp412:
	.cfi_def_cfa r11, 8
.Ltmp413:
	.loc	26 110 25 prologue_end  @ /usr/bin/../lib/gcc/arm-linux-gnueabihf/6.3.0/../../../../include/c++/6.3.0/bits/basic_string.h:110:25
	movw	r4, :lower16:.L_MergedGlobals
.Ltmp414:
	.loc	3 18 13 discriminator 6 @ /root/Bela/projects/granular_delay/render.cpp:18:13
	movw	r5, :lower16:__dso_handle
.Ltmp415:
	.loc	26 110 25               @ /usr/bin/../lib/gcc/arm-linux-gnueabihf/6.3.0/../../../../include/c++/6.3.0/bits/basic_string.h:110:25
	movt	r4, :upper16:.L_MergedGlobals
	add	r0, r4, #84
.Ltmp416:
	@DEBUG_VALUE: _S_copy:__d <- %R0
	@DEBUG_VALUE: _M_construct<const char *>:__dnew <- 14
	str	r0, [r4, #76]
.Ltmp417:
	@DEBUG_VALUE: _S_copy:__n <- 14
	.loc	27 290 33               @ /usr/bin/../lib/gcc/arm-linux-gnueabihf/6.3.0/../../../../include/c++/6.3.0/bits/char_traits.h:290:33
	movw	r0, :lower16:.L.str
.Ltmp418:
	movt	r0, :upper16:.L.str
	add	r1, r0, #6
	vldr	d17, [r0]
	add	r0, r4, #90
	vld1.16	{d16}, [r1]
.Ltmp419:
	.loc	3 18 13 discriminator 6 @ /root/Bela/projects/granular_delay/render.cpp:18:13
	movt	r5, :upper16:__dso_handle
.Ltmp420:
	.loc	26 110 25               @ /usr/bin/../lib/gcc/arm-linux-gnueabihf/6.3.0/../../../../include/c++/6.3.0/bits/basic_string.h:110:25
	add	r1, r4, #76
.Ltmp421:
	@DEBUG_VALUE: _M_length:this <- %R1
	@DEBUG_VALUE: _M_set_length:__n <- 14
	@DEBUG_VALUE: _M_set_length:this <- %R1
	@DEBUG_VALUE: _M_construct<const char *>:this <- %R1
	@DEBUG_VALUE: _M_construct_aux<const char *>:this <- %R1
	@DEBUG_VALUE: _M_construct<const char *>:this <- %R1
	@DEBUG_VALUE: basic_string:this <- %R1
	mov	r7, #0
.Ltmp422:
	@DEBUG_VALUE: allocate: <- %R7
	@DEBUG_VALUE: allocate:__n <- 6
	@DEBUG_VALUE: allocate:__n <- 6
	@DEBUG_VALUE: _M_allocate:__n <- 6
	@DEBUG_VALUE: _M_range_initialize<const float *>:__n <- 6
	.loc	27 290 33               @ /usr/bin/../lib/gcc/arm-linux-gnueabihf/6.3.0/../../../../include/c++/6.3.0/bits/char_traits.h:290:33
	vst1.16	{d16}, [r0]
	mov	r0, #14
.Ltmp423:
	@DEBUG_VALUE: _M_length:__length <- 14
	.loc	3 18 13 discriminator 6 @ /root/Bela/projects/granular_delay/render.cpp:18:13
	mov	r2, r5
.Ltmp424:
	.loc	27 290 33               @ /usr/bin/../lib/gcc/arm-linux-gnueabihf/6.3.0/../../../../include/c++/6.3.0/bits/char_traits.h:290:33
	vstr	d17, [r4, #84]
.Ltmp425:
	.loc	26 132 26               @ /usr/bin/../lib/gcc/arm-linux-gnueabihf/6.3.0/../../../../include/c++/6.3.0/bits/basic_string.h:132:26
	str	r0, [r4, #80]
.Ltmp426:
	.loc	3 18 13 discriminator 6 @ /root/Bela/projects/granular_delay/render.cpp:18:13
	movw	r0, :lower16:_ZNSt7__cxx1112basic_stringIcSt11char_traitsIcESaIcEED2Ev
	movt	r0, :upper16:_ZNSt7__cxx1112basic_stringIcSt11char_traitsIcESaIcEED2Ev
.Ltmp427:
	.loc	27 243 14               @ /usr/bin/../lib/gcc/arm-linux-gnueabihf/6.3.0/../../../../include/c++/6.3.0/bits/char_traits.h:243:14
	strb	r7, [r4, #98]
.Ltmp428:
	.loc	3 18 13 discriminator 6 @ /root/Bela/projects/granular_delay/render.cpp:18:13
	bl	__cxa_atexit
.Ltmp429:
	.loc	3 24 5                  @ /root/Bela/projects/granular_delay/render.cpp:24:5
	movw	r6, :lower16:gui
	movt	r6, :upper16:gui
	mov	r0, r6
	bl	_ZN3GuiC1Ev
	.loc	3 24 5 is_stmt 0 discriminator 1 @ /root/Bela/projects/granular_delay/render.cpp:24:5
	movw	r0, :lower16:_ZN3GuiD1Ev
	mov	r1, r6
	movt	r0, :upper16:_ZN3GuiD1Ev
	mov	r2, r5
	bl	__cxa_atexit
.Ltmp430:
	.loc	7 87 22 is_stmt 1       @ /usr/bin/../lib/gcc/arm-linux-gnueabihf/6.3.0/../../../../include/c++/6.3.0/bits/stl_vector.h:87:22
	movw	r0, :lower16:grain_generators
.Ltmp431:
	.loc	23 58 8                 @ /root/Bela/projects/granular_delay/./GrainGenerator/GrainGenerator.h:58:8
	mov	r1, #1065353216
.Ltmp432:
	.loc	7 87 22                 @ /usr/bin/../lib/gcc/arm-linux-gnueabihf/6.3.0/../../../../include/c++/6.3.0/bits/stl_vector.h:87:22
	movt	r0, :upper16:grain_generators
.Ltmp433:
	.loc	3 30 16 discriminator 3 @ /root/Bela/projects/granular_delay/render.cpp:30:16
	mov	r2, r5
.Ltmp434:
	.loc	7 87 22                 @ /usr/bin/../lib/gcc/arm-linux-gnueabihf/6.3.0/../../../../include/c++/6.3.0/bits/stl_vector.h:87:22
	str	r7, [r0]
	.loc	7 87 34 is_stmt 0       @ /usr/bin/../lib/gcc/arm-linux-gnueabihf/6.3.0/../../../../include/c++/6.3.0/bits/stl_vector.h:87:34
	str	r7, [r0, #4]
	.loc	7 87 47                 @ /usr/bin/../lib/gcc/arm-linux-gnueabihf/6.3.0/../../../../include/c++/6.3.0/bits/stl_vector.h:87:47
	str	r7, [r0, #8]
.Ltmp435:
	.loc	23 58 8 is_stmt 1       @ /root/Bela/projects/granular_delay/./GrainGenerator/GrainGenerator.h:58:8
	str	r1, [r0, #12]
	.loc	23 62 8                 @ /root/Bela/projects/granular_delay/./GrainGenerator/GrainGenerator.h:62:8
	str	r7, [r0, #28]
.Ltmp436:
	.loc	7 87 22                 @ /usr/bin/../lib/gcc/arm-linux-gnueabihf/6.3.0/../../../../include/c++/6.3.0/bits/stl_vector.h:87:22
	str	r7, [r0, #40]
	.loc	7 87 34 is_stmt 0       @ /usr/bin/../lib/gcc/arm-linux-gnueabihf/6.3.0/../../../../include/c++/6.3.0/bits/stl_vector.h:87:34
	str	r7, [r0, #44]
	.loc	7 87 47                 @ /usr/bin/../lib/gcc/arm-linux-gnueabihf/6.3.0/../../../../include/c++/6.3.0/bits/stl_vector.h:87:47
	str	r7, [r0, #48]
.Ltmp437:
	.loc	23 58 8 is_stmt 1       @ /root/Bela/projects/granular_delay/./GrainGenerator/GrainGenerator.h:58:8
	str	r1, [r0, #52]
	.loc	23 62 8                 @ /root/Bela/projects/granular_delay/./GrainGenerator/GrainGenerator.h:62:8
	str	r7, [r0, #68]
.Ltmp438:
	.loc	7 87 22                 @ /usr/bin/../lib/gcc/arm-linux-gnueabihf/6.3.0/../../../../include/c++/6.3.0/bits/stl_vector.h:87:22
	str	r7, [r0, #80]
	.loc	7 87 34 is_stmt 0       @ /usr/bin/../lib/gcc/arm-linux-gnueabihf/6.3.0/../../../../include/c++/6.3.0/bits/stl_vector.h:87:34
	str	r7, [r0, #84]
	.loc	7 87 47                 @ /usr/bin/../lib/gcc/arm-linux-gnueabihf/6.3.0/../../../../include/c++/6.3.0/bits/stl_vector.h:87:47
	str	r7, [r0, #88]
.Ltmp439:
	.loc	23 58 8 is_stmt 1       @ /root/Bela/projects/granular_delay/./GrainGenerator/GrainGenerator.h:58:8
	str	r1, [r0, #92]
	.loc	23 62 8                 @ /root/Bela/projects/granular_delay/./GrainGenerator/GrainGenerator.h:62:8
	str	r7, [r0, #108]
.Ltmp440:
	.loc	7 87 22                 @ /usr/bin/../lib/gcc/arm-linux-gnueabihf/6.3.0/../../../../include/c++/6.3.0/bits/stl_vector.h:87:22
	str	r7, [r0, #120]
	.loc	7 87 34 is_stmt 0       @ /usr/bin/../lib/gcc/arm-linux-gnueabihf/6.3.0/../../../../include/c++/6.3.0/bits/stl_vector.h:87:34
	str	r7, [r0, #124]
	.loc	7 87 47                 @ /usr/bin/../lib/gcc/arm-linux-gnueabihf/6.3.0/../../../../include/c++/6.3.0/bits/stl_vector.h:87:47
	str	r7, [r0, #128]
.Ltmp441:
	.loc	23 58 8 is_stmt 1       @ /root/Bela/projects/granular_delay/./GrainGenerator/GrainGenerator.h:58:8
	str	r1, [r0, #132]
	.loc	23 62 8                 @ /root/Bela/projects/granular_delay/./GrainGenerator/GrainGenerator.h:62:8
	str	r7, [r0, #148]
.Ltmp442:
	.loc	7 87 22                 @ /usr/bin/../lib/gcc/arm-linux-gnueabihf/6.3.0/../../../../include/c++/6.3.0/bits/stl_vector.h:87:22
	str	r7, [r0, #160]
	.loc	7 87 34 is_stmt 0       @ /usr/bin/../lib/gcc/arm-linux-gnueabihf/6.3.0/../../../../include/c++/6.3.0/bits/stl_vector.h:87:34
	str	r7, [r0, #164]
	.loc	7 87 47                 @ /usr/bin/../lib/gcc/arm-linux-gnueabihf/6.3.0/../../../../include/c++/6.3.0/bits/stl_vector.h:87:47
	str	r7, [r0, #168]
.Ltmp443:
	.loc	23 58 8 is_stmt 1       @ /root/Bela/projects/granular_delay/./GrainGenerator/GrainGenerator.h:58:8
	str	r1, [r0, #172]
	.loc	23 62 8                 @ /root/Bela/projects/granular_delay/./GrainGenerator/GrainGenerator.h:62:8
	str	r7, [r0, #188]
.Ltmp444:
	.loc	7 87 22                 @ /usr/bin/../lib/gcc/arm-linux-gnueabihf/6.3.0/../../../../include/c++/6.3.0/bits/stl_vector.h:87:22
	str	r7, [r0, #200]
	.loc	7 87 34 is_stmt 0       @ /usr/bin/../lib/gcc/arm-linux-gnueabihf/6.3.0/../../../../include/c++/6.3.0/bits/stl_vector.h:87:34
	str	r7, [r0, #204]
	.loc	7 87 47                 @ /usr/bin/../lib/gcc/arm-linux-gnueabihf/6.3.0/../../../../include/c++/6.3.0/bits/stl_vector.h:87:47
	str	r7, [r0, #208]
.Ltmp445:
	.loc	23 58 8 is_stmt 1       @ /root/Bela/projects/granular_delay/./GrainGenerator/GrainGenerator.h:58:8
	str	r1, [r0, #212]
	.loc	23 62 8                 @ /root/Bela/projects/granular_delay/./GrainGenerator/GrainGenerator.h:62:8
	str	r7, [r0, #228]
.Ltmp446:
	.loc	7 87 22                 @ /usr/bin/../lib/gcc/arm-linux-gnueabihf/6.3.0/../../../../include/c++/6.3.0/bits/stl_vector.h:87:22
	str	r7, [r0, #240]
	.loc	7 87 34 is_stmt 0       @ /usr/bin/../lib/gcc/arm-linux-gnueabihf/6.3.0/../../../../include/c++/6.3.0/bits/stl_vector.h:87:34
	str	r7, [r0, #244]
	.loc	7 87 47                 @ /usr/bin/../lib/gcc/arm-linux-gnueabihf/6.3.0/../../../../include/c++/6.3.0/bits/stl_vector.h:87:47
	str	r7, [r0, #248]
.Ltmp447:
	.loc	23 58 8 is_stmt 1       @ /root/Bela/projects/granular_delay/./GrainGenerator/GrainGenerator.h:58:8
	str	r1, [r0, #252]
	.loc	23 62 8                 @ /root/Bela/projects/granular_delay/./GrainGenerator/GrainGenerator.h:62:8
	str	r7, [r0, #268]
.Ltmp448:
	.loc	7 87 22                 @ /usr/bin/../lib/gcc/arm-linux-gnueabihf/6.3.0/../../../../include/c++/6.3.0/bits/stl_vector.h:87:22
	str	r7, [r0, #280]
	.loc	7 87 34 is_stmt 0       @ /usr/bin/../lib/gcc/arm-linux-gnueabihf/6.3.0/../../../../include/c++/6.3.0/bits/stl_vector.h:87:34
	str	r7, [r0, #284]
	.loc	7 87 47                 @ /usr/bin/../lib/gcc/arm-linux-gnueabihf/6.3.0/../../../../include/c++/6.3.0/bits/stl_vector.h:87:47
	str	r7, [r0, #288]
.Ltmp449:
	.loc	23 58 8 is_stmt 1       @ /root/Bela/projects/granular_delay/./GrainGenerator/GrainGenerator.h:58:8
	str	r1, [r0, #292]
	.loc	23 62 8                 @ /root/Bela/projects/granular_delay/./GrainGenerator/GrainGenerator.h:62:8
	str	r7, [r0, #308]
.Ltmp450:
	.loc	7 87 22                 @ /usr/bin/../lib/gcc/arm-linux-gnueabihf/6.3.0/../../../../include/c++/6.3.0/bits/stl_vector.h:87:22
	str	r7, [r0, #320]
	.loc	7 87 34 is_stmt 0       @ /usr/bin/../lib/gcc/arm-linux-gnueabihf/6.3.0/../../../../include/c++/6.3.0/bits/stl_vector.h:87:34
	str	r7, [r0, #324]
	.loc	7 87 47                 @ /usr/bin/../lib/gcc/arm-linux-gnueabihf/6.3.0/../../../../include/c++/6.3.0/bits/stl_vector.h:87:47
	str	r7, [r0, #328]
.Ltmp451:
	.loc	23 58 8 is_stmt 1       @ /root/Bela/projects/granular_delay/./GrainGenerator/GrainGenerator.h:58:8
	str	r1, [r0, #332]
	.loc	23 62 8                 @ /root/Bela/projects/granular_delay/./GrainGenerator/GrainGenerator.h:62:8
	str	r7, [r0, #348]
.Ltmp452:
	.loc	7 87 22                 @ /usr/bin/../lib/gcc/arm-linux-gnueabihf/6.3.0/../../../../include/c++/6.3.0/bits/stl_vector.h:87:22
	str	r7, [r0, #360]
	.loc	7 87 34 is_stmt 0       @ /usr/bin/../lib/gcc/arm-linux-gnueabihf/6.3.0/../../../../include/c++/6.3.0/bits/stl_vector.h:87:34
	str	r7, [r0, #364]
	.loc	7 87 47                 @ /usr/bin/../lib/gcc/arm-linux-gnueabihf/6.3.0/../../../../include/c++/6.3.0/bits/stl_vector.h:87:47
	str	r7, [r0, #368]
.Ltmp453:
	.loc	23 58 8 is_stmt 1       @ /root/Bela/projects/granular_delay/./GrainGenerator/GrainGenerator.h:58:8
	str	r1, [r0, #372]
	.loc	23 62 8                 @ /root/Bela/projects/granular_delay/./GrainGenerator/GrainGenerator.h:62:8
	str	r7, [r0, #388]
.Ltmp454:
	.loc	7 87 22                 @ /usr/bin/../lib/gcc/arm-linux-gnueabihf/6.3.0/../../../../include/c++/6.3.0/bits/stl_vector.h:87:22
	str	r7, [r0, #400]
	.loc	7 87 34 is_stmt 0       @ /usr/bin/../lib/gcc/arm-linux-gnueabihf/6.3.0/../../../../include/c++/6.3.0/bits/stl_vector.h:87:34
	str	r7, [r0, #404]
	.loc	7 87 47                 @ /usr/bin/../lib/gcc/arm-linux-gnueabihf/6.3.0/../../../../include/c++/6.3.0/bits/stl_vector.h:87:47
	str	r7, [r0, #408]
.Ltmp455:
	.loc	23 58 8 is_stmt 1       @ /root/Bela/projects/granular_delay/./GrainGenerator/GrainGenerator.h:58:8
	str	r1, [r0, #412]
	.loc	23 62 8                 @ /root/Bela/projects/granular_delay/./GrainGenerator/GrainGenerator.h:62:8
	str	r7, [r0, #428]
.Ltmp456:
	.loc	7 87 22                 @ /usr/bin/../lib/gcc/arm-linux-gnueabihf/6.3.0/../../../../include/c++/6.3.0/bits/stl_vector.h:87:22
	str	r7, [r0, #440]
	.loc	7 87 34 is_stmt 0       @ /usr/bin/../lib/gcc/arm-linux-gnueabihf/6.3.0/../../../../include/c++/6.3.0/bits/stl_vector.h:87:34
	str	r7, [r0, #444]
	.loc	7 87 47                 @ /usr/bin/../lib/gcc/arm-linux-gnueabihf/6.3.0/../../../../include/c++/6.3.0/bits/stl_vector.h:87:47
	str	r7, [r0, #448]
.Ltmp457:
	.loc	23 58 8 is_stmt 1       @ /root/Bela/projects/granular_delay/./GrainGenerator/GrainGenerator.h:58:8
	str	r1, [r0, #452]
	.loc	23 62 8                 @ /root/Bela/projects/granular_delay/./GrainGenerator/GrainGenerator.h:62:8
	str	r7, [r0, #468]
.Ltmp458:
	.loc	7 87 22                 @ /usr/bin/../lib/gcc/arm-linux-gnueabihf/6.3.0/../../../../include/c++/6.3.0/bits/stl_vector.h:87:22
	str	r7, [r0, #480]
	.loc	7 87 34 is_stmt 0       @ /usr/bin/../lib/gcc/arm-linux-gnueabihf/6.3.0/../../../../include/c++/6.3.0/bits/stl_vector.h:87:34
	str	r7, [r0, #484]
	.loc	7 87 47                 @ /usr/bin/../lib/gcc/arm-linux-gnueabihf/6.3.0/../../../../include/c++/6.3.0/bits/stl_vector.h:87:47
	str	r7, [r0, #488]
.Ltmp459:
	.loc	23 58 8 is_stmt 1       @ /root/Bela/projects/granular_delay/./GrainGenerator/GrainGenerator.h:58:8
	str	r1, [r0, #492]
	.loc	23 62 8                 @ /root/Bela/projects/granular_delay/./GrainGenerator/GrainGenerator.h:62:8
	str	r7, [r0, #508]
.Ltmp460:
	.loc	7 87 22                 @ /usr/bin/../lib/gcc/arm-linux-gnueabihf/6.3.0/../../../../include/c++/6.3.0/bits/stl_vector.h:87:22
	str	r7, [r0, #520]
	.loc	7 87 34 is_stmt 0       @ /usr/bin/../lib/gcc/arm-linux-gnueabihf/6.3.0/../../../../include/c++/6.3.0/bits/stl_vector.h:87:34
	str	r7, [r0, #524]
	.loc	7 87 47                 @ /usr/bin/../lib/gcc/arm-linux-gnueabihf/6.3.0/../../../../include/c++/6.3.0/bits/stl_vector.h:87:47
	str	r7, [r0, #528]
.Ltmp461:
	.loc	23 58 8 is_stmt 1       @ /root/Bela/projects/granular_delay/./GrainGenerator/GrainGenerator.h:58:8
	str	r1, [r0, #532]
	.loc	23 62 8                 @ /root/Bela/projects/granular_delay/./GrainGenerator/GrainGenerator.h:62:8
	str	r7, [r0, #548]
.Ltmp462:
	.loc	7 87 22                 @ /usr/bin/../lib/gcc/arm-linux-gnueabihf/6.3.0/../../../../include/c++/6.3.0/bits/stl_vector.h:87:22
	str	r7, [r0, #560]
	.loc	7 87 34 is_stmt 0       @ /usr/bin/../lib/gcc/arm-linux-gnueabihf/6.3.0/../../../../include/c++/6.3.0/bits/stl_vector.h:87:34
	str	r7, [r0, #564]
	.loc	7 87 47                 @ /usr/bin/../lib/gcc/arm-linux-gnueabihf/6.3.0/../../../../include/c++/6.3.0/bits/stl_vector.h:87:47
	str	r7, [r0, #568]
.Ltmp463:
	.loc	23 58 8 is_stmt 1       @ /root/Bela/projects/granular_delay/./GrainGenerator/GrainGenerator.h:58:8
	str	r1, [r0, #572]
	.loc	23 62 8                 @ /root/Bela/projects/granular_delay/./GrainGenerator/GrainGenerator.h:62:8
	str	r7, [r0, #588]
.Ltmp464:
	.loc	7 87 22                 @ /usr/bin/../lib/gcc/arm-linux-gnueabihf/6.3.0/../../../../include/c++/6.3.0/bits/stl_vector.h:87:22
	str	r7, [r0, #600]
	.loc	7 87 34 is_stmt 0       @ /usr/bin/../lib/gcc/arm-linux-gnueabihf/6.3.0/../../../../include/c++/6.3.0/bits/stl_vector.h:87:34
	str	r7, [r0, #604]
	.loc	7 87 47                 @ /usr/bin/../lib/gcc/arm-linux-gnueabihf/6.3.0/../../../../include/c++/6.3.0/bits/stl_vector.h:87:47
	str	r7, [r0, #608]
.Ltmp465:
	.loc	23 58 8 is_stmt 1       @ /root/Bela/projects/granular_delay/./GrainGenerator/GrainGenerator.h:58:8
	str	r1, [r0, #612]
	.loc	23 62 8                 @ /root/Bela/projects/granular_delay/./GrainGenerator/GrainGenerator.h:62:8
	str	r7, [r0, #628]
.Ltmp466:
	.loc	7 87 22                 @ /usr/bin/../lib/gcc/arm-linux-gnueabihf/6.3.0/../../../../include/c++/6.3.0/bits/stl_vector.h:87:22
	str	r7, [r0, #640]
	.loc	7 87 34 is_stmt 0       @ /usr/bin/../lib/gcc/arm-linux-gnueabihf/6.3.0/../../../../include/c++/6.3.0/bits/stl_vector.h:87:34
	str	r7, [r0, #644]
	.loc	7 87 47                 @ /usr/bin/../lib/gcc/arm-linux-gnueabihf/6.3.0/../../../../include/c++/6.3.0/bits/stl_vector.h:87:47
	str	r7, [r0, #648]
.Ltmp467:
	.loc	23 58 8 is_stmt 1       @ /root/Bela/projects/granular_delay/./GrainGenerator/GrainGenerator.h:58:8
	str	r1, [r0, #652]
	.loc	23 62 8                 @ /root/Bela/projects/granular_delay/./GrainGenerator/GrainGenerator.h:62:8
	str	r7, [r0, #668]
.Ltmp468:
	.loc	7 87 22                 @ /usr/bin/../lib/gcc/arm-linux-gnueabihf/6.3.0/../../../../include/c++/6.3.0/bits/stl_vector.h:87:22
	str	r7, [r0, #680]
	.loc	7 87 34 is_stmt 0       @ /usr/bin/../lib/gcc/arm-linux-gnueabihf/6.3.0/../../../../include/c++/6.3.0/bits/stl_vector.h:87:34
	str	r7, [r0, #684]
	.loc	7 87 47                 @ /usr/bin/../lib/gcc/arm-linux-gnueabihf/6.3.0/../../../../include/c++/6.3.0/bits/stl_vector.h:87:47
	str	r7, [r0, #688]
.Ltmp469:
	.loc	23 58 8 is_stmt 1       @ /root/Bela/projects/granular_delay/./GrainGenerator/GrainGenerator.h:58:8
	str	r1, [r0, #692]
	.loc	23 62 8                 @ /root/Bela/projects/granular_delay/./GrainGenerator/GrainGenerator.h:62:8
	str	r7, [r0, #708]
.Ltmp470:
	.loc	7 87 22                 @ /usr/bin/../lib/gcc/arm-linux-gnueabihf/6.3.0/../../../../include/c++/6.3.0/bits/stl_vector.h:87:22
	str	r7, [r0, #720]
	.loc	7 87 34 is_stmt 0       @ /usr/bin/../lib/gcc/arm-linux-gnueabihf/6.3.0/../../../../include/c++/6.3.0/bits/stl_vector.h:87:34
	str	r7, [r0, #724]
	.loc	7 87 47                 @ /usr/bin/../lib/gcc/arm-linux-gnueabihf/6.3.0/../../../../include/c++/6.3.0/bits/stl_vector.h:87:47
	str	r7, [r0, #728]
.Ltmp471:
	.loc	23 58 8 is_stmt 1       @ /root/Bela/projects/granular_delay/./GrainGenerator/GrainGenerator.h:58:8
	str	r1, [r0, #732]
	.loc	23 62 8                 @ /root/Bela/projects/granular_delay/./GrainGenerator/GrainGenerator.h:62:8
	str	r7, [r0, #748]
	str	r7, [r0, #788]
.Ltmp472:
	.loc	7 87 22                 @ /usr/bin/../lib/gcc/arm-linux-gnueabihf/6.3.0/../../../../include/c++/6.3.0/bits/stl_vector.h:87:22
	str	r7, [r0, #760]
	.loc	7 87 34 is_stmt 0       @ /usr/bin/../lib/gcc/arm-linux-gnueabihf/6.3.0/../../../../include/c++/6.3.0/bits/stl_vector.h:87:34
	str	r7, [r0, #764]
	.loc	7 87 47                 @ /usr/bin/../lib/gcc/arm-linux-gnueabihf/6.3.0/../../../../include/c++/6.3.0/bits/stl_vector.h:87:47
	str	r7, [r0, #768]
.Ltmp473:
	.loc	23 58 8 is_stmt 1       @ /root/Bela/projects/granular_delay/./GrainGenerator/GrainGenerator.h:58:8
	str	r1, [r0, #772]
.Ltmp474:
	.loc	3 30 16 discriminator 3 @ /root/Bela/projects/granular_delay/render.cpp:30:16
	movw	r0, :lower16:__cxx_global_array_dtor
	movt	r0, :upper16:__cxx_global_array_dtor
	mov	r1, #0
	bl	__cxa_atexit
.Ltmp475:
	.loc	7 91 25                 @ /usr/bin/../lib/gcc/arm-linux-gnueabihf/6.3.0/../../../../include/c++/6.3.0/bits/stl_vector.h:91:25
	str	r7, [r4, #52]
	.loc	7 91 37 is_stmt 0       @ /usr/bin/../lib/gcc/arm-linux-gnueabihf/6.3.0/../../../../include/c++/6.3.0/bits/stl_vector.h:91:37
	str	r7, [r4, #56]
	.loc	7 91 50                 @ /usr/bin/../lib/gcc/arm-linux-gnueabihf/6.3.0/../../../../include/c++/6.3.0/bits/stl_vector.h:91:50
	str	r7, [r4, #60]
.Ltmp476:
	.loc	10 104 27 is_stmt 1     @ /usr/bin/../lib/gcc/arm-linux-gnueabihf/6.3.0/../../../../include/c++/6.3.0/ext/new_allocator.h:104:27
.Ltmp402:
	mov	r0, #24
	bl	_Znwj
.Ltmp403:
.Ltmp477:
	@DEBUG_VALUE: _S_copy:__s <- %R0
@ BB#1:                                 @ %__cxx_global_var_init.3.exit
	@DEBUG_VALUE: _S_copy:__s <- %R0
	@DEBUG_VALUE: allocate: <- %R7
	.loc	54 368 6                @ /usr/bin/../lib/gcc/arm-linux-gnueabihf/6.3.0/../../../../include/c++/6.3.0/bits/stl_algobase.h:368:6
	movw	r3, :lower16:.L.ref.tmp
.Ltmp478:
	.loc	7 1285 27               @ /usr/bin/../lib/gcc/arm-linux-gnueabihf/6.3.0/../../../../include/c++/6.3.0/bits/stl_vector.h:1285:27
	mov	r1, r4
.Ltmp479:
	.loc	54 368 6                @ /usr/bin/../lib/gcc/arm-linux-gnueabihf/6.3.0/../../../../include/c++/6.3.0/bits/stl_algobase.h:368:6
	movt	r3, :upper16:.L.ref.tmp
.Ltmp480:
	.loc	3 44 30 discriminator 6 @ /root/Bela/projects/granular_delay/render.cpp:44:30
	movw	r5, :lower16:_ZNSt6vectorIfSaIfEED2Ev
.Ltmp481:
	.loc	54 368 6                @ /usr/bin/../lib/gcc/arm-linux-gnueabihf/6.3.0/../../../../include/c++/6.3.0/bits/stl_algobase.h:368:6
	vld1.32	{d16, d17}, [r3]!
.Ltmp482:
	.loc	3 44 30 discriminator 6 @ /root/Bela/projects/granular_delay/render.cpp:44:30
	movw	r6, :lower16:__dso_handle
.Ltmp483:
	.loc	7 1286 61               @ /usr/bin/../lib/gcc/arm-linux-gnueabihf/6.3.0/../../../../include/c++/6.3.0/bits/stl_vector.h:1286:61
	add	r2, r0, #24
.Ltmp484:
	.loc	3 44 30 discriminator 6 @ /root/Bela/projects/granular_delay/render.cpp:44:30
	movt	r5, :upper16:_ZNSt6vectorIfSaIfEED2Ev
.Ltmp485:
	.loc	7 1285 27               @ /usr/bin/../lib/gcc/arm-linux-gnueabihf/6.3.0/../../../../include/c++/6.3.0/bits/stl_vector.h:1285:27
	str	r0, [r1, #52]!
.Ltmp486:
	@DEBUG_VALUE: _M_range_initialize<const float *>:this <- %R1
	.loc	3 44 30 discriminator 6 @ /root/Bela/projects/granular_delay/render.cpp:44:30
	movt	r6, :upper16:__dso_handle
.Ltmp487:
	.loc	54 368 6                @ /usr/bin/../lib/gcc/arm-linux-gnueabihf/6.3.0/../../../../include/c++/6.3.0/bits/stl_algobase.h:368:6
	vldr	d18, [r3]
	vst1.32	{d16, d17}, [r0]!
.Ltmp488:
	.loc	7 1286 36               @ /usr/bin/../lib/gcc/arm-linux-gnueabihf/6.3.0/../../../../include/c++/6.3.0/bits/stl_vector.h:1286:36
	str	r2, [r4, #60]
.Ltmp489:
	.loc	54 368 6                @ /usr/bin/../lib/gcc/arm-linux-gnueabihf/6.3.0/../../../../include/c++/6.3.0/bits/stl_algobase.h:368:6
	vstr	d18, [r0]
.Ltmp490:
	.loc	3 44 30 discriminator 6 @ /root/Bela/projects/granular_delay/render.cpp:44:30
	mov	r0, r5
.Ltmp491:
	.loc	7 1287 28               @ /usr/bin/../lib/gcc/arm-linux-gnueabihf/6.3.0/../../../../include/c++/6.3.0/bits/stl_vector.h:1287:28
	str	r2, [r4, #56]
.Ltmp492:
	.loc	3 44 30 discriminator 6 @ /root/Bela/projects/granular_delay/render.cpp:44:30
	mov	r2, r6
	bl	__cxa_atexit
.Ltmp493:
	.loc	7 87 22                 @ /usr/bin/../lib/gcc/arm-linux-gnueabihf/6.3.0/../../../../include/c++/6.3.0/bits/stl_vector.h:87:22
	str	r7, [r4, #64]!
.Ltmp494:
	.loc	3 49 20 discriminator 1 @ /root/Bela/projects/granular_delay/render.cpp:49:20
	mov	r0, r5
	mov	r2, r6
.Ltmp495:
	@DEBUG_VALUE: vector:this <- %R4
	@DEBUG_VALUE: __copy_m<float>:_Num <- 6
	@DEBUG_VALUE: __copy_move_a<false, const float *, float *>:__simple <- 1
	@DEBUG_VALUE: uninitialized_copy<const float *, float *>:__assignable <- 1
	.loc	7 87 34                 @ /usr/bin/../lib/gcc/arm-linux-gnueabihf/6.3.0/../../../../include/c++/6.3.0/bits/stl_vector.h:87:34
	str	r7, [r4, #4]
.Ltmp496:
	.loc	3 49 20 discriminator 1 @ /root/Bela/projects/granular_delay/render.cpp:49:20
	mov	r1, r4
.Ltmp497:
	.loc	7 87 47                 @ /usr/bin/../lib/gcc/arm-linux-gnueabihf/6.3.0/../../../../include/c++/6.3.0/bits/stl_vector.h:87:47
	str	r7, [r4, #8]
.Ltmp498:
	.loc	3 49 20 discriminator 1 @ /root/Bela/projects/granular_delay/render.cpp:49:20
	pop	{r4, r5, r6, r7, r11, lr}
.Ltmp499:
	b	__cxa_atexit
.Ltmp500:
.LBB8_2:
	@DEBUG_VALUE: _S_copy:__s <- %R0
	@DEBUG_VALUE: allocate: <- %R7
.Ltmp404:
	mov	r5, r0
.Ltmp501:
	.loc	7 160 37                @ /usr/bin/../lib/gcc/arm-linux-gnueabihf/6.3.0/../../../../include/c++/6.3.0/bits/stl_vector.h:160:37
	ldr	r0, [r4, #52]
.Ltmp502:
	@DEBUG_VALUE: _M_deallocate:__p <- %R0
	@DEBUG_VALUE: deallocate:__p <- %R0
	@DEBUG_VALUE: deallocate:__p <- %R0
	.loc	7 177 6                 @ /usr/bin/../lib/gcc/arm-linux-gnueabihf/6.3.0/../../../../include/c++/6.3.0/bits/stl_vector.h:177:6
	cmp	r0, #0
	beq	.LBB8_4
.Ltmp503:
@ BB#3:
	@DEBUG_VALUE: deallocate:__p <- %R0
	@DEBUG_VALUE: deallocate:__p <- %R0
	@DEBUG_VALUE: _M_deallocate:__p <- %R0
	@DEBUG_VALUE: allocate: <- %R7
	.loc	10 110 9                @ /usr/bin/../lib/gcc/arm-linux-gnueabihf/6.3.0/../../../../include/c++/6.3.0/ext/new_allocator.h:110:9
	bl	_ZdlPv
.Ltmp504:
.LBB8_4:                                @ %.body.i
	@DEBUG_VALUE: allocate: <- %R7
	mov	r0, r5
	mov	lr, pc
	b	_Unwind_Resume
.Lfunc_end8:
	.size	_GLOBAL__sub_I_render.ii, .Lfunc_end8-_GLOBAL__sub_I_render.ii
	.cfi_endproc
	.globl	__gxx_personality_v0
	.personality __gxx_personality_v0
	.handlerdata
	.p2align	2
GCC_except_table8:
.Lexception1:
	.byte	255                     @ @LPStart Encoding = omit
	.byte	0                       @ @TType Encoding = absptr
	.byte	41                      @ @TType base offset
	.byte	3                       @ Call site Encoding = udata4
	.byte	39                      @ Call site table length
	.long	.Lfunc_begin8-.Lfunc_begin8 @ >> Call Site 1 <<
	.long	.Ltmp402-.Lfunc_begin8  @   Call between .Lfunc_begin8 and .Ltmp402
	.long	0                       @     has no landing pad
	.byte	0                       @   On action: cleanup
	.long	.Ltmp402-.Lfunc_begin8  @ >> Call Site 2 <<
	.long	.Ltmp403-.Ltmp402       @   Call between .Ltmp402 and .Ltmp403
	.long	.Ltmp404-.Lfunc_begin8  @     jumps to .Ltmp404
	.byte	0                       @   On action: cleanup
	.long	.Ltmp403-.Lfunc_begin8  @ >> Call Site 3 <<
	.long	.Lfunc_end8-.Ltmp403    @   Call between .Ltmp403 and .Lfunc_end8
	.long	0                       @     has no landing pad
	.byte	0                       @   On action: cleanup
	.p2align	2
	.fnend

	.type	.L.str,%object          @ @.str
	.section	.rodata.str1.8,"aMS",%progbits,1
	.p2align	3
.L.str:
	.asciz	"samples/AI.wav"
	.size	.L.str, 15

	.type	gui,%object             @ @gui
	.bss
	.globl	gui
	.p2align	2
gui:
	.zero	136
	.size	gui, 136

	.type	grain_generators,%object @ @grain_generators
	.globl	grain_generators
	.p2align	2
grain_generators:
	.zero	800
	.size	grain_generators, 800

	.type	.L.ref.tmp,%object      @ @.ref.tmp
	.section	.rodata,"a",%progbits
	.p2align	3
.L.ref.tmp:
	.long	1067450368              @ float 1.25
	.long	1071225242              @ float 1.70000005
	.long	1072902963              @ float 1.89999998
	.long	1073741824              @ float 2
	.long	1074790400              @ float 2.25
	.long	1075838976              @ float 2.5
	.size	.L.ref.tmp, 24

	.type	.L.str.5,%object        @ @.str.5
	.section	.rodata.str1.1,"aMS",%progbits,1
.L.str.5:
	.asciz	"Error loading audio file '%s'\n"
	.size	.L.str.5, 31

	.type	.L.str.6,%object        @ @.str.6
.L.str.6:
	.asciz	"gui"
	.size	.L.str.6, 4

	.type	.L.str.8,%object        @ @.str.8
.L.str.8:
	.asciz	"vector::_M_default_append"
	.size	.L.str.8, 26

	.section	.init_array,"aw",%init_array
	.p2align	2
	.long	_GLOBAL__sub_I_render.ii(target1)
	.type	.L_MergedGlobals,%object @ @_MergedGlobals
	.data
	.p2align	4
.L_MergedGlobals:
	.byte	0                       @ 0x0
	.byte	0                       @ 0x0
	.zero	2
	.long	1056964608              @ float 0.5
	.long	0                       @ 0x0
	.long	20                      @ 0x14
	.long	0                       @ 0x0
	.long	0                       @ float 0
	.long	0                       @ float 0
	.long	1176256512              @ float 1.0E+4
	.long	0                       @ float 0
	.long	0                       @ 0x0
	.long	0                       @ float 0
	.long	0                       @ 0x0
	.long	0                       @ 0x0
	.zero	12
	.zero	12
	.zero	24
	.size	.L_MergedGlobals, 100
