	.text
	.syntax unified
	.eabi_attribute	67, "2.09"	@ Tag_conformance
	.cpu	cortex-a8
	.eabi_attribute	6, 10	@ Tag_CPU_arch
	.eabi_attribute	7, 65	@ Tag_CPU_arch_profile
	.eabi_attribute	8, 1	@ Tag_ARM_ISA_use
	.eabi_attribute	9, 2	@ Tag_THUMB_ISA_use
	.fpu	neon
	.eabi_attribute	17, 1	@ Tag_ABI_PCS_GOT_use
	.eabi_attribute	20, 2	@ Tag_ABI_FP_denormal
	.eabi_attribute	23, 1	@ Tag_ABI_FP_number_model
	.eabi_attribute	34, 1	@ Tag_CPU_unaligned_access
	.eabi_attribute	24, 1	@ Tag_ABI_align_needed
	.eabi_attribute	25, 1	@ Tag_ABI_align_preserved
	.eabi_attribute	28, 1	@ Tag_ABI_VFP_args
	.eabi_attribute	38, 1	@ Tag_ABI_FP_16bit_format
	.eabi_attribute	18, 4	@ Tag_ABI_PCS_wchar_t
	.eabi_attribute	26, 2	@ Tag_ABI_enum_size
	.eabi_attribute	14, 0	@ Tag_ABI_PCS_R9_use
	.eabi_attribute	68, 1	@ Tag_Virtualization_use
	.file	"/root/Bela/projects/gran_copy/build/render.bc"
	.file	1 "/usr/bin/../lib/gcc/arm-linux-gnueabihf/6.3.0/../../../../include/arm-linux-gnueabihf/c++/6.3.0/bits" "c++config.h"
	.file	2 "/usr/bin/../lib/gcc/arm-linux-gnueabihf/6.3.0/../../../../include/c++/6.3.0/bits" "stringfwd.h"
	.file	3 "/root/Bela/projects/gran_copy" "render.cpp"
	.file	4 "/usr/bin/../lib/gcc/arm-linux-gnueabihf/6.3.0/../../../../include/c++/6.3.0/bits" "alloc_traits.h"
	.file	5 "./include" "DataBuffer.h"
	.file	6 "/usr/bin/../lib/gcc/arm-linux-gnueabihf/6.3.0/../../../../include/c++/6.3.0/ext" "alloc_traits.h"
	.file	7 "/usr/bin/../lib/gcc/arm-linux-gnueabihf/6.3.0/../../../../include/c++/6.3.0/bits" "stl_vector.h"
	.file	8 "/usr/bin/../lib/gcc/arm-linux-gnueabihf/6.3.0/../../../../include/c++/6.3.0" "type_traits"
	.file	9 "/usr/include" "stdint.h"
	.file	10 "/usr/bin/../lib/gcc/arm-linux-gnueabihf/6.3.0/../../../../include/c++/6.3.0/ext" "new_allocator.h"
	.file	11 "/usr/bin/../lib/gcc/arm-linux-gnueabihf/6.3.0/../../../../include/arm-linux-gnueabihf/c++/6.3.0/bits" "c++allocator.h"
	.file	12 "/usr/bin/../lib/gcc/arm-linux-gnueabihf/6.3.0/../../../../include/c++/6.3.0/bits" "allocator.h"
	.file	13 "./libraries/Gui" "Gui.h"
	.file	14 "/usr/bin/../lib/gcc/arm-linux-gnueabihf/6.3.0/../../../../include/c++/6.3.0/bits" "unique_ptr.h"
	.file	15 "/usr/bin/../lib/gcc/arm-linux-gnueabihf/6.3.0/../../../../include/c++/6.3.0" "tuple"
	.file	16 "/usr/bin/../lib/gcc/arm-linux-gnueabihf/6.3.0/../../../../include/c++/6.3.0/bits" "uses_allocator.h"
	.file	17 "/usr/bin/../lib/gcc/arm-linux-gnueabihf/6.3.0/../../../../include/c++/6.3.0/bits" "stl_function.h"
	.file	18 "/usr/bin/../lib/gcc/arm-linux-gnueabihf/6.3.0/../../../../include/c++/6.3.0" "functional"
	.file	19 "/usr/lib/llvm-3.9/bin/../lib/clang/3.9.1/include" "stddef.h"
	.file	20 "/usr/bin/../lib/gcc/arm-linux-gnueabihf/6.3.0/../../../../include/c++/6.3.0" "initializer_list"
	.file	21 "/usr/bin/../lib/gcc/arm-linux-gnueabihf/6.3.0/../../../../include/c++/6.3.0/bits" "stl_iterator.h"
	.file	22 "/usr/bin/../lib/gcc/arm-linux-gnueabihf/6.3.0/../../../../include/c++/6.3.0/bits" "stl_iterator_base_types.h"
	.file	23 "/root/Bela/projects/gran_copy/./GrainGenerator" "GrainGenerator.h"
	.file	24 "/usr/bin/../lib/gcc/arm-linux-gnueabihf/6.3.0/../../../../include/c++/6.3.0/ext" "concurrence.h"
	.file	25 "/usr/bin/../lib/gcc/arm-linux-gnueabihf/6.3.0/../../../../include/c++/6.3.0/bits" "cpp_type_traits.h"
	.file	26 "/usr/bin/../lib/gcc/arm-linux-gnueabihf/6.3.0/../../../../include/c++/6.3.0/bits" "basic_string.h"
	.file	27 "/usr/bin/../lib/gcc/arm-linux-gnueabihf/6.3.0/../../../../include/c++/6.3.0/bits" "char_traits.h"
	.file	28 "/usr/bin/../lib/gcc/arm-linux-gnueabihf/6.3.0/../../../../include/c++/6.3.0/debug" "debug.h"
	.file	29 "/usr/bin/../lib/gcc/arm-linux-gnueabihf/6.3.0/../../../../include/c++/6.3.0/bits" "exception_ptr.h"
	.file	30 "/usr/include" "wchar.h"
	.file	31 "/usr/include" "libio.h"
	.file	32 "/usr/include/arm-linux-gnueabihf/bits" "types.h"
	.file	33 "/usr/include" "stdio.h"
	.file	34 "/usr/lib/llvm-3.9/bin/../lib/clang/3.9.1/include" "stdarg.h"
	.file	35 "/usr/include" "time.h"
	.file	36 "/usr/include" "locale.h"
	.file	37 "/usr/include" "ctype.h"
	.file	38 "/usr/include" "stdlib.h"
	.file	39 "/usr/include/arm-linux-gnueabihf/bits" "stdlib-float.h"
	.file	40 "/usr/include/arm-linux-gnueabihf/bits" "stdlib-bsearch.h"
	.file	41 "/usr/bin/../lib/gcc/arm-linux-gnueabihf/6.3.0/../../../../include/c++/6.3.0" "cstdlib"
	.file	42 "/usr/include" "_G_config.h"
	.file	43 "/usr/include/arm-linux-gnueabihf/bits" "stdio.h"
	.file	44 "/usr/include/arm-linux-gnueabihf/bits" "math-finite.h"
	.file	45 "/usr/include/arm-linux-gnueabihf/bits" "mathcalls.h"
	.file	46 "/usr/include/arm-linux-gnueabihf/bits" "mathdef.h"
	.file	47 "/usr/include" "string.h"
	.file	48 "/usr/include" "wctype.h"
	.section	.text.startup,"ax",%progbits
	.p2align	2
	.type	__cxx_global_array_dtor,%function
__cxx_global_array_dtor:                @ @__cxx_global_array_dtor
.Lfunc_begin0:
	.file	49 "/root/Bela/projects/gran_copy/build" "render.cpp"
	.loc	49 31 0                 @ /root/Bela/projects/gran_copy/build/render.cpp:31:0
	.fnstart
	.cfi_startproc
@ BB#0:
	.save	{r4, r10, r11, lr}
	push	{r4, r10, r11, lr}
.Ltmp0:
	.cfi_def_cfa_offset 16
.Ltmp1:
	.cfi_offset lr, -4
.Ltmp2:
	.cfi_offset r11, -8
.Ltmp3:
	.cfi_offset r10, -12
.Ltmp4:
	.cfi_offset r4, -16
	.setfp	r11, sp, #8
	add	r11, sp, #8
.Ltmp5:
	.cfi_def_cfa r11, 8
	@DEBUG_VALUE: __cxx_global_array_dtor: <- %R0
.Ltmp6:
	.loc	7 160 37 prologue_end   @ /usr/bin/../lib/gcc/arm-linux-gnueabihf/6.3.0/../../../../include/c++/6.3.0/bits/stl_vector.h:160:37
	movw	r4, :lower16:grain_generators
	movt	r4, :upper16:grain_generators
	ldr	r0, [r4, #156]
.Ltmp7:
	@DEBUG_VALUE: _M_deallocate:__p <- %R0
	@DEBUG_VALUE: deallocate:__p <- %R0
	@DEBUG_VALUE: deallocate:__p <- %R0
	.loc	7 177 6                 @ /usr/bin/../lib/gcc/arm-linux-gnueabihf/6.3.0/../../../../include/c++/6.3.0/bits/stl_vector.h:177:6
	cmp	r0, #0
	beq	.LBB0_2
.Ltmp8:
@ BB#1:
	@DEBUG_VALUE: deallocate:__p <- %R0
	@DEBUG_VALUE: deallocate:__p <- %R0
	@DEBUG_VALUE: _M_deallocate:__p <- %R0
	.loc	10 110 9                @ /usr/bin/../lib/gcc/arm-linux-gnueabihf/6.3.0/../../../../include/c++/6.3.0/ext/new_allocator.h:110:9
	bl	_ZdlPv
.Ltmp9:
.LBB0_2:                                @ %_ZN14MonoFilePlayerD2Ev.exit
	.loc	7 160 37                @ /usr/bin/../lib/gcc/arm-linux-gnueabihf/6.3.0/../../../../include/c++/6.3.0/bits/stl_vector.h:160:37
	ldr	r0, [r4, #104]
.Ltmp10:
	.loc	7 177 6                 @ /usr/bin/../lib/gcc/arm-linux-gnueabihf/6.3.0/../../../../include/c++/6.3.0/bits/stl_vector.h:177:6
	cmp	r0, #0
	beq	.LBB0_4
@ BB#3:
.Ltmp11:
	.loc	10 110 9                @ /usr/bin/../lib/gcc/arm-linux-gnueabihf/6.3.0/../../../../include/c++/6.3.0/ext/new_allocator.h:110:9
	bl	_ZdlPv
.Ltmp12:
.LBB0_4:                                @ %_ZN14MonoFilePlayerD2Ev.exit.1
	.loc	7 160 37                @ /usr/bin/../lib/gcc/arm-linux-gnueabihf/6.3.0/../../../../include/c++/6.3.0/bits/stl_vector.h:160:37
	ldr	r0, [r4, #52]
.Ltmp13:
	.loc	7 177 6                 @ /usr/bin/../lib/gcc/arm-linux-gnueabihf/6.3.0/../../../../include/c++/6.3.0/bits/stl_vector.h:177:6
	cmp	r0, #0
	beq	.LBB0_6
@ BB#5:
.Ltmp14:
	.loc	10 110 9                @ /usr/bin/../lib/gcc/arm-linux-gnueabihf/6.3.0/../../../../include/c++/6.3.0/ext/new_allocator.h:110:9
	bl	_ZdlPv
.Ltmp15:
.LBB0_6:                                @ %_ZN14MonoFilePlayerD2Ev.exit.2
	.loc	7 160 37                @ /usr/bin/../lib/gcc/arm-linux-gnueabihf/6.3.0/../../../../include/c++/6.3.0/bits/stl_vector.h:160:37
	ldr	r0, [r4]
.Ltmp16:
	.loc	7 177 6                 @ /usr/bin/../lib/gcc/arm-linux-gnueabihf/6.3.0/../../../../include/c++/6.3.0/bits/stl_vector.h:177:6
	cmp	r0, #0
.Ltmp17:
	.loc	3 31 1                  @ /root/Bela/projects/gran_copy/render.cpp:31:1
	popeq	{r4, r10, r11, pc}
.Ltmp18:
	.loc	10 110 9                @ /usr/bin/../lib/gcc/arm-linux-gnueabihf/6.3.0/../../../../include/c++/6.3.0/ext/new_allocator.h:110:9
	pop	{r4, r10, r11, lr}
	b	_ZdlPv
.Ltmp19:
.Lfunc_end0:
	.size	__cxx_global_array_dtor, .Lfunc_end0-__cxx_global_array_dtor
	.cfi_endproc
	.fnend

	.section	.text._ZNSt6vectorIfSaIfEED2Ev,"axG",%progbits,_ZNSt6vectorIfSaIfEED2Ev,comdat
	.weak	_ZNSt6vectorIfSaIfEED2Ev
	.p2align	2
	.type	_ZNSt6vectorIfSaIfEED2Ev,%function
_ZNSt6vectorIfSaIfEED2Ev:               @ @_ZNSt6vectorIfSaIfEED2Ev
.Lfunc_begin1:
	.loc	7 426 0                 @ /usr/bin/../lib/gcc/arm-linux-gnueabihf/6.3.0/../../../../include/c++/6.3.0/bits/stl_vector.h:426:0
	.fnstart
	.cfi_startproc
@ BB#0:
	.save	{r4, r10, r11, lr}
	push	{r4, r10, r11, lr}
.Ltmp20:
	.cfi_def_cfa_offset 16
.Ltmp21:
	.cfi_offset lr, -4
.Ltmp22:
	.cfi_offset r11, -8
.Ltmp23:
	.cfi_offset r10, -12
.Ltmp24:
	.cfi_offset r4, -16
	.setfp	r11, sp, #8
	add	r11, sp, #8
.Ltmp25:
	.cfi_def_cfa r11, 8
	@DEBUG_VALUE: ~vector:this <- %R0
	mov	r4, r0
.Ltmp26:
	@DEBUG_VALUE: ~vector:this <- %R4
	.loc	7 160 37 prologue_end   @ /usr/bin/../lib/gcc/arm-linux-gnueabihf/6.3.0/../../../../include/c++/6.3.0/bits/stl_vector.h:160:37
	ldr	r0, [r4]
.Ltmp27:
	@DEBUG_VALUE: _M_deallocate:__p <- %R0
	@DEBUG_VALUE: deallocate:__p <- %R0
	@DEBUG_VALUE: deallocate:__p <- %R0
	.loc	7 177 6                 @ /usr/bin/../lib/gcc/arm-linux-gnueabihf/6.3.0/../../../../include/c++/6.3.0/bits/stl_vector.h:177:6
	cmp	r0, #0
	beq	.LBB1_2
.Ltmp28:
@ BB#1:
	@DEBUG_VALUE: deallocate:__p <- %R0
	@DEBUG_VALUE: deallocate:__p <- %R0
	@DEBUG_VALUE: _M_deallocate:__p <- %R0
	@DEBUG_VALUE: ~vector:this <- %R4
	.loc	10 110 9                @ /usr/bin/../lib/gcc/arm-linux-gnueabihf/6.3.0/../../../../include/c++/6.3.0/ext/new_allocator.h:110:9
	bl	_ZdlPv
.Ltmp29:
.LBB1_2:                                @ %_ZNSt12_Vector_baseIfSaIfEED2Ev.exit
	@DEBUG_VALUE: ~vector:this <- %R4
	.loc	7 427 33 discriminator 1 @ /usr/bin/../lib/gcc/arm-linux-gnueabihf/6.3.0/../../../../include/c++/6.3.0/bits/stl_vector.h:427:33
	mov	r0, r4
	pop	{r4, r10, r11, pc}
.Ltmp30:
.Lfunc_end1:
	.size	_ZNSt6vectorIfSaIfEED2Ev, .Lfunc_end1-_ZNSt6vectorIfSaIfEED2Ev
	.cfi_endproc
	.fnend

	.text
	.globl	setup
	.p2align	2
	.type	setup,%function
setup:                                  @ @setup
.Lfunc_begin2:
	.loc	3 51 0                  @ /root/Bela/projects/gran_copy/render.cpp:51:0
	.fnstart
	.cfi_startproc
@ BB#0:
	.save	{r4, r5, r6, r7, r8, r9, r10, r11, lr}
	push	{r4, r5, r6, r7, r8, r9, r10, r11, lr}
.Ltmp44:
	.cfi_def_cfa_offset 36
.Ltmp45:
	.cfi_offset lr, -4
.Ltmp46:
	.cfi_offset r11, -8
.Ltmp47:
	.cfi_offset r10, -12
.Ltmp48:
	.cfi_offset r9, -16
.Ltmp49:
	.cfi_offset r8, -20
.Ltmp50:
	.cfi_offset r7, -24
.Ltmp51:
	.cfi_offset r6, -28
.Ltmp52:
	.cfi_offset r5, -32
.Ltmp53:
	.cfi_offset r4, -36
	.setfp	r11, sp, #28
	add	r11, sp, #28
.Ltmp54:
	.cfi_def_cfa r11, 8
	.pad	#4
	sub	sp, sp, #4
	.vsave	{d8, d9}
	vpush	{d8, d9}
.Ltmp55:
	.cfi_offset d9, -48
.Ltmp56:
	.cfi_offset d8, -56
	.pad	#112
	sub	sp, sp, #112
	@DEBUG_VALUE: setup:context <- %R0
	@DEBUG_VALUE: setup:userData <- %R1
	mov	r5, r0
.Ltmp57:
	@DEBUG_VALUE: i <- 0
	@DEBUG_VALUE: setup:context <- %R5
	.loc	3 53 20 prologue_end discriminator 1 @ /root/Bela/projects/gran_copy/render.cpp:53:20
	movw	r0, :lower16:.L_MergedGlobals
	movt	r0, :upper16:.L_MergedGlobals
	ldr	r0, [r0, #12]
	.loc	3 53 5 is_stmt 0 discriminator 1 @ /root/Bela/projects/gran_copy/render.cpp:53:5
	cmp	r0, #0
	ble	.LBB2_10
.Ltmp58:
@ BB#1:                                 @ %.lr.ph
	@DEBUG_VALUE: setup:context <- %R5
	@DEBUG_VALUE: setup:userData <- %R1
	add	r0, sp, #56
	movw	r6, :lower16:grain_generators
.Ltmp59:
	.loc	23 23 7 is_stmt 1       @ /root/Bela/projects/gran_copy/./GrainGenerator/GrainGenerator.h:23:7
	add	r4, r0, #12
.Ltmp60:
	.loc	3 53 20 discriminator 1 @ /root/Bela/projects/gran_copy/render.cpp:53:20
	movw	r0, :lower16:.L_MergedGlobals
	movt	r0, :upper16:.L_MergedGlobals
	mov	r8, #0
	movt	r6, :upper16:grain_generators
.Ltmp61:
	.loc	7 87 34                 @ /usr/bin/../lib/gcc/arm-linux-gnueabihf/6.3.0/../../../../include/c++/6.3.0/bits/stl_vector.h:87:34
	vmov.i32	q4, #0x0
.Ltmp62:
	.loc	3 57 27                 @ /root/Bela/projects/gran_copy/render.cpp:57:27
	add	r7, r0, #60
	mov	r9, #0
.Ltmp63:
.LBB2_2:                                @ =>This Inner Loop Header: Depth=1
	@DEBUG_VALUE: grain <- undef
	@DEBUG_VALUE: MonoFilePlayer:this <- undef
	@DEBUG_VALUE: operator=: <- undef
	add	r1, sp, #56
.Ltmp64:
	.loc	23 59 8                 @ /root/Bela/projects/gran_copy/./GrainGenerator/GrainGenerator.h:59:8
	mov	r2, #1065353216
.Ltmp65:
	.loc	7 87 34                 @ /usr/bin/../lib/gcc/arm-linux-gnueabihf/6.3.0/../../../../include/c++/6.3.0/bits/stl_vector.h:87:34
	mov	r0, r1
	vst1.64	{d8, d9}, [r0]!
.Ltmp66:
	.loc	23 59 8                 @ /root/Bela/projects/gran_copy/./GrainGenerator/GrainGenerator.h:59:8
	str	r2, [r0]
	.loc	23 62 8                 @ /root/Bela/projects/gran_copy/./GrainGenerator/GrainGenerator.h:62:8
	str	r8, [sp, #84]
	.loc	23 64 8                 @ /root/Bela/projects/gran_copy/./GrainGenerator/GrainGenerator.h:64:8
	str	r8, [sp, #92]
.Ltmp67:
	.loc	23 23 7                 @ /root/Bela/projects/gran_copy/./GrainGenerator/GrainGenerator.h:23:7
.Ltmp31:
	mov	r0, r6
	bl	_ZNSt6vectorIfSaIfEEaSERKS1_
.Ltmp32:
@ BB#3:                                 @   in Loop: Header=BB2_2 Depth=1
	.loc	23 23 7 is_stmt 0 discriminator 1 @ /root/Bela/projects/gran_copy/./GrainGenerator/GrainGenerator.h:23:7
	mov	r0, r4
	vld1.32	{d16, d17}, [r0]!
	vld1.32	{d18, d19}, [r0]
	add	r0, r6, #12
	vst1.32	{d16, d17}, [r0]
	add	r0, r4, #29
	vld1.8	{d16}, [r0]
	add	r0, r6, #28
	vst1.32	{d18, d19}, [r0]
	add	r0, r6, #41
	vst1.8	{d16}, [r0]
.Ltmp68:
	.loc	3 57 52 is_stmt 1       @ /root/Bela/projects/gran_copy/render.cpp:57:52
	vldr	s0, [r5, #32]
	.loc	3 57 43 is_stmt 0       @ /root/Bela/projects/gran_copy/render.cpp:57:43
	vcvt.s32.f32	d0, d0
	.loc	3 57 27                 @ /root/Bela/projects/gran_copy/render.cpp:57:27
.Ltmp33:
	.loc	3 57 43                 @ /root/Bela/projects/gran_copy/render.cpp:57:43
	vmov	r2, s0
	.loc	3 57 27                 @ /root/Bela/projects/gran_copy/render.cpp:57:27
	mov	r0, r6
	mov	r1, r7
	mov	r3, #0
	str	r8, [sp]
	bl	_ZN14MonoFilePlayer5setupERKNSt7__cxx1112basic_stringIcSt11char_traitsIcESaIcEEEibb
.Ltmp34:
.Ltmp69:
@ BB#4:                                 @   in Loop: Header=BB2_2 Depth=1
	mov	r10, #0
	.loc	3 57 6 discriminator 1  @ /root/Bela/projects/gran_copy/render.cpp:57:6
	cmp	r0, #0
	bne	.LBB2_6
.Ltmp70:
@ BB#5:                                 @   in Loop: Header=BB2_2 Depth=1
	.loc	3 53 20 is_stmt 1 discriminator 1 @ /root/Bela/projects/gran_copy/render.cpp:53:20
	movw	r0, :lower16:.L_MergedGlobals
	mov	r10, #1
	movt	r0, :upper16:.L_MergedGlobals
.Ltmp71:
	.loc	26 136 28               @ /usr/bin/../lib/gcc/arm-linux-gnueabihf/6.3.0/../../../../include/c++/6.3.0/bits/basic_string.h:136:28
	ldr	r1, [r0, #60]
.Ltmp72:
	.loc	3 58 7                  @ /root/Bela/projects/gran_copy/render.cpp:58:7
.Ltmp35:
	movw	r0, :lower16:.L.str.4
	movt	r0, :upper16:.L.str.4
	bl	rt_printf
.Ltmp36:
.Ltmp73:
.LBB2_6:                                @   in Loop: Header=BB2_2 Depth=1
	.loc	7 160 37                @ /usr/bin/../lib/gcc/arm-linux-gnueabihf/6.3.0/../../../../include/c++/6.3.0/bits/stl_vector.h:160:37
	ldr	r0, [sp, #56]
.Ltmp74:
	@DEBUG_VALUE: _M_deallocate:__p <- %R0
	@DEBUG_VALUE: deallocate:__p <- %R0
	@DEBUG_VALUE: deallocate:__p <- %R0
	.loc	7 177 6                 @ /usr/bin/../lib/gcc/arm-linux-gnueabihf/6.3.0/../../../../include/c++/6.3.0/bits/stl_vector.h:177:6
	cmp	r0, #0
	beq	.LBB2_8
.Ltmp75:
@ BB#7:                                 @   in Loop: Header=BB2_2 Depth=1
	@DEBUG_VALUE: deallocate:__p <- %R0
	@DEBUG_VALUE: deallocate:__p <- %R0
	@DEBUG_VALUE: _M_deallocate:__p <- %R0
	.loc	10 110 9                @ /usr/bin/../lib/gcc/arm-linux-gnueabihf/6.3.0/../../../../include/c++/6.3.0/ext/new_allocator.h:110:9
	bl	_ZdlPv
.Ltmp76:
.LBB2_8:                                @ %_ZN14MonoFilePlayerD2Ev.exit24
                                        @   in Loop: Header=BB2_2 Depth=1
	mov	r0, #0
	cmp	r10, #0
	bne	.LBB2_24
@ BB#9:                                 @   in Loop: Header=BB2_2 Depth=1
	.loc	3 53 20 discriminator 1 @ /root/Bela/projects/gran_copy/render.cpp:53:20
	movw	r0, :lower16:.L_MergedGlobals
	.loc	3 53 31 is_stmt 0 discriminator 4 @ /root/Bela/projects/gran_copy/render.cpp:53:31
	add	r9, r9, #1
.Ltmp77:
	@DEBUG_VALUE: i <- %R9
	.loc	3 53 20 discriminator 1 @ /root/Bela/projects/gran_copy/render.cpp:53:20
	movt	r0, :upper16:.L_MergedGlobals
	.loc	3 53 19 discriminator 1 @ /root/Bela/projects/gran_copy/render.cpp:53:19
	add	r6, r6, #52
	.loc	3 53 20 discriminator 1 @ /root/Bela/projects/gran_copy/render.cpp:53:20
	ldr	r0, [r0, #12]
	.loc	3 53 5 discriminator 1  @ /root/Bela/projects/gran_copy/render.cpp:53:5
	cmp	r9, r0
	blt	.LBB2_2
.Ltmp78:
.LBB2_10:                               @ %._crit_edge
	.loc	3 63 11 is_stmt 1       @ /root/Bela/projects/gran_copy/render.cpp:63:11
	movw	r0, #0
.Ltmp79:
	.loc	3 53 20 discriminator 1 @ /root/Bela/projects/gran_copy/render.cpp:53:20
	movw	r1, :lower16:.L_MergedGlobals
.Ltmp80:
	.loc	3 63 11                 @ /root/Bela/projects/gran_copy/render.cpp:63:11
	movt	r0, #17786
.Ltmp81:
	.loc	3 53 20 discriminator 1 @ /root/Bela/projects/gran_copy/render.cpp:53:20
	movt	r1, :upper16:.L_MergedGlobals
.Ltmp82:
	.loc	3 63 11                 @ /root/Bela/projects/gran_copy/render.cpp:63:11
	str	r0, [r1, #24]
	.loc	3 64 34                 @ /root/Bela/projects/gran_copy/render.cpp:64:34
	vmov.f32	d16, #4.000000e+00
	.loc	3 64 45 is_stmt 0       @ /root/Bela/projects/gran_copy/render.cpp:64:45
	vldr	s2, [r5, #32]
	mov	r0, #0
	.loc	3 66 38 is_stmt 1       @ /root/Bela/projects/gran_copy/render.cpp:66:38
	vldr	s0, .LCPI2_0
	.loc	3 73 12                 @ /root/Bela/projects/gran_copy/render.cpp:73:12
	add	r4, r5, #92
.Ltmp83:
	@DEBUG_VALUE: basic_string:__s <- %R4
	@DEBUG_VALUE: length:__s <- %R4
	@DEBUG_VALUE: _M_construct<const char *>:__beg <- %R4
	@DEBUG_VALUE: _M_construct_aux<const char *>:__beg <- %R4
	@DEBUG_VALUE: _M_construct<const char *>:__beg <- %R4
	@DEBUG_VALUE: _S_copy_chars:__k1 <- %R4
	@DEBUG_VALUE: _S_copy:__s <- %R4
	@DEBUG_VALUE: assign:__c2 <- %R4
	.loc	3 64 34                 @ /root/Bela/projects/gran_copy/render.cpp:64:34
	vmul.f32	d2, d1, d16
	.loc	3 66 38                 @ /root/Bela/projects/gran_copy/render.cpp:66:38
	vmul.f32	d16, d1, d0
	.loc	3 64 14                 @ /root/Bela/projects/gran_copy/render.cpp:64:14
	vstr	s4, [r1, #20]
	.loc	3 66 23                 @ /root/Bela/projects/gran_copy/render.cpp:66:23
	vldr	s0, [r1, #32]
	.loc	3 66 44 is_stmt 0       @ /root/Bela/projects/gran_copy/render.cpp:66:44
	vmul.f32	d0, d16, d0
	.loc	3 66 21                 @ /root/Bela/projects/gran_copy/render.cpp:66:21
	vstr	s0, [r1, #36]
	.loc	3 68 15 is_stmt 1       @ /root/Bela/projects/gran_copy/render.cpp:68:15
	str	r0, [r1, #28]
	.loc	3 69 10                 @ /root/Bela/projects/gran_copy/render.cpp:69:10
	strb	r0, [r1]
	add	r0, sp, #32
.Ltmp84:
	@DEBUG_VALUE: _M_construct<const char *>:this <- %R0
	@DEBUG_VALUE: _M_construct_aux<const char *>:this <- %R0
	@DEBUG_VALUE: _M_construct<const char *>:this <- %R0
	@DEBUG_VALUE: _M_local_data:this <- %R0
	.loc	26 142 51               @ /usr/bin/../lib/gcc/arm-linux-gnueabihf/6.3.0/../../../../include/c++/6.3.0/bits/basic_string.h:142:51
	add	r6, r0, #8
.Ltmp85:
	.loc	27 267 16               @ /usr/bin/../lib/gcc/arm-linux-gnueabihf/6.3.0/../../../../include/c++/6.3.0/bits/char_traits.h:267:16
	mov	r0, r4
.Ltmp86:
	.loc	26 110 25               @ /usr/bin/../lib/gcc/arm-linux-gnueabihf/6.3.0/../../../../include/c++/6.3.0/bits/basic_string.h:110:25
	str	r6, [sp, #32]
.Ltmp87:
	.loc	27 267 16               @ /usr/bin/../lib/gcc/arm-linux-gnueabihf/6.3.0/../../../../include/c++/6.3.0/bits/char_traits.h:267:16
	bl	strlen
	mov	r5, r0
.Ltmp88:
	@DEBUG_VALUE: _M_construct<const char *>:__dnew <- %R5
	@DEBUG_VALUE: _S_copy:__n <- %R5
	.file	50 "/usr/bin/../lib/gcc/arm-linux-gnueabihf/6.3.0/../../../../include/c++/6.3.0/bits" "basic_string.tcc"
	.loc	50 217 6                @ /usr/bin/../lib/gcc/arm-linux-gnueabihf/6.3.0/../../../../include/c++/6.3.0/bits/basic_string.tcc:217:6
	cmp	r5, #15
	.loc	50 215 12               @ /usr/bin/../lib/gcc/arm-linux-gnueabihf/6.3.0/../../../../include/c++/6.3.0/bits/basic_string.tcc:215:12
	str	r5, [sp, #56]
	bls	.LBB2_13
.Ltmp89:
@ BB#11:                                @ %.noexc8.i
	@DEBUG_VALUE: _S_copy:__n <- %R5
	@DEBUG_VALUE: _M_construct<const char *>:__dnew <- %R5
	@DEBUG_VALUE: assign:__c2 <- %R4
	@DEBUG_VALUE: _S_copy:__s <- %R4
	@DEBUG_VALUE: _S_copy_chars:__k1 <- %R4
	@DEBUG_VALUE: _M_construct<const char *>:__beg <- %R4
	@DEBUG_VALUE: _M_construct_aux<const char *>:__beg <- %R4
	@DEBUG_VALUE: _M_construct<const char *>:__beg <- %R4
	@DEBUG_VALUE: length:__s <- %R4
	@DEBUG_VALUE: basic_string:__s <- %R4
	.loc	50 219 14               @ /usr/bin/../lib/gcc/arm-linux-gnueabihf/6.3.0/../../../../include/c++/6.3.0/bits/basic_string.tcc:219:14
.Ltmp38:
	add	r0, sp, #32
	add	r1, sp, #56
.Ltmp90:
	@DEBUG_VALUE: _M_construct<const char *>:__dnew <- [%R1+0]
	mov	r2, #0
	bl	_ZNSt7__cxx1112basic_stringIcSt11char_traitsIcESaIcEE9_M_createERjj
.Ltmp91:
.Ltmp39:
.Ltmp92:
@ BB#12:                                @ %.noexc
	@DEBUG_VALUE: _S_copy:__n <- %R5
	@DEBUG_VALUE: assign:__c2 <- %R4
	@DEBUG_VALUE: _S_copy:__s <- %R4
	@DEBUG_VALUE: _S_copy_chars:__k1 <- %R4
	@DEBUG_VALUE: _M_construct<const char *>:__beg <- %R4
	@DEBUG_VALUE: _M_construct_aux<const char *>:__beg <- %R4
	@DEBUG_VALUE: _M_construct<const char *>:__beg <- %R4
	@DEBUG_VALUE: length:__s <- %R4
	@DEBUG_VALUE: basic_string:__s <- %R4
	@DEBUG_VALUE: _M_data:__p <- %R0
	.loc	50 220 18               @ /usr/bin/../lib/gcc/arm-linux-gnueabihf/6.3.0/../../../../include/c++/6.3.0/bits/basic_string.tcc:220:18
	ldr	r1, [sp, #56]
.Ltmp93:
	@DEBUG_VALUE: _M_capacity:__capacity <- %R1
	@DEBUG_VALUE: _M_construct<const char *>:__dnew <- %R1
	.loc	26 128 26               @ /usr/bin/../lib/gcc/arm-linux-gnueabihf/6.3.0/../../../../include/c++/6.3.0/bits/basic_string.h:128:26
	str	r0, [sp, #32]
.Ltmp94:
	.loc	26 160 31               @ /usr/bin/../lib/gcc/arm-linux-gnueabihf/6.3.0/../../../../include/c++/6.3.0/bits/basic_string.h:160:31
	str	r1, [sp, #40]
	b	.LBB2_14
.Ltmp95:
.LBB2_13:                               @ %._crit_edge.i.i.i.i
	@DEBUG_VALUE: _S_copy:__n <- %R5
	@DEBUG_VALUE: _M_construct<const char *>:__dnew <- %R5
	@DEBUG_VALUE: assign:__c2 <- %R4
	@DEBUG_VALUE: _S_copy:__s <- %R4
	@DEBUG_VALUE: _S_copy_chars:__k1 <- %R4
	@DEBUG_VALUE: _M_construct<const char *>:__beg <- %R4
	@DEBUG_VALUE: _M_construct_aux<const char *>:__beg <- %R4
	@DEBUG_VALUE: _M_construct<const char *>:__beg <- %R4
	@DEBUG_VALUE: length:__s <- %R4
	@DEBUG_VALUE: basic_string:__s <- %R4
	.loc	26 136 28               @ /usr/bin/../lib/gcc/arm-linux-gnueabihf/6.3.0/../../../../include/c++/6.3.0/bits/basic_string.h:136:28
	mov	r0, r6
.Ltmp96:
.LBB2_14:
	@DEBUG_VALUE: _S_copy:__n <- %R5
	@DEBUG_VALUE: assign:__c2 <- %R4
	@DEBUG_VALUE: _S_copy:__s <- %R4
	@DEBUG_VALUE: _S_copy_chars:__k1 <- %R4
	@DEBUG_VALUE: _M_construct<const char *>:__beg <- %R4
	@DEBUG_VALUE: _M_construct_aux<const char *>:__beg <- %R4
	@DEBUG_VALUE: _M_construct<const char *>:__beg <- %R4
	@DEBUG_VALUE: length:__s <- %R4
	@DEBUG_VALUE: basic_string:__s <- %R4
	.loc	26 297 6                @ /usr/bin/../lib/gcc/arm-linux-gnueabihf/6.3.0/../../../../include/c++/6.3.0/bits/basic_string.h:297:6
	cmp	r5, #0
	beq	.LBB2_18
.Ltmp97:
@ BB#15:
	@DEBUG_VALUE: _S_copy:__n <- %R5
	@DEBUG_VALUE: assign:__c2 <- %R4
	@DEBUG_VALUE: _S_copy:__s <- %R4
	@DEBUG_VALUE: _S_copy_chars:__k1 <- %R4
	@DEBUG_VALUE: _M_construct<const char *>:__beg <- %R4
	@DEBUG_VALUE: _M_construct_aux<const char *>:__beg <- %R4
	@DEBUG_VALUE: _M_construct<const char *>:__beg <- %R4
	@DEBUG_VALUE: length:__s <- %R4
	@DEBUG_VALUE: basic_string:__s <- %R4
	cmp	r5, #1
	bne	.LBB2_17
.Ltmp98:
@ BB#16:
	@DEBUG_VALUE: _S_copy:__n <- %R5
	@DEBUG_VALUE: assign:__c2 <- %R4
	@DEBUG_VALUE: _S_copy:__s <- %R4
	@DEBUG_VALUE: _S_copy_chars:__k1 <- %R4
	@DEBUG_VALUE: _M_construct<const char *>:__beg <- %R4
	@DEBUG_VALUE: _M_construct_aux<const char *>:__beg <- %R4
	@DEBUG_VALUE: _M_construct<const char *>:__beg <- %R4
	@DEBUG_VALUE: length:__s <- %R4
	@DEBUG_VALUE: basic_string:__s <- %R4
	.loc	27 243 16               @ /usr/bin/../lib/gcc/arm-linux-gnueabihf/6.3.0/../../../../include/c++/6.3.0/bits/char_traits.h:243:16
	ldrb	r1, [r4]
.Ltmp99:
	@DEBUG_VALUE: _S_copy_chars:__p <- %R0
	.loc	27 243 14 is_stmt 0     @ /usr/bin/../lib/gcc/arm-linux-gnueabihf/6.3.0/../../../../include/c++/6.3.0/bits/char_traits.h:243:14
	strb	r1, [r0]
	b	.LBB2_18
.Ltmp100:
.LBB2_17:
	@DEBUG_VALUE: _S_copy:__n <- %R5
	@DEBUG_VALUE: assign:__c2 <- %R4
	@DEBUG_VALUE: _S_copy:__s <- %R4
	@DEBUG_VALUE: _S_copy_chars:__k1 <- %R4
	@DEBUG_VALUE: _M_construct<const char *>:__beg <- %R4
	@DEBUG_VALUE: _M_construct_aux<const char *>:__beg <- %R4
	@DEBUG_VALUE: _M_construct<const char *>:__beg <- %R4
	@DEBUG_VALUE: length:__s <- %R4
	@DEBUG_VALUE: basic_string:__s <- %R4
	.loc	27 290 33 is_stmt 1     @ /usr/bin/../lib/gcc/arm-linux-gnueabihf/6.3.0/../../../../include/c++/6.3.0/bits/char_traits.h:290:33
	mov	r1, r4
	mov	r2, r5
	bl	memcpy
.Ltmp101:
.LBB2_18:                               @ %._crit_edge.i.i.i.i27
	@DEBUG_VALUE: _S_copy:__n <- %R5
	@DEBUG_VALUE: assign:__c2 <- %R4
	@DEBUG_VALUE: _S_copy:__s <- %R4
	@DEBUG_VALUE: _S_copy_chars:__k1 <- %R4
	@DEBUG_VALUE: _M_construct<const char *>:__beg <- %R4
	@DEBUG_VALUE: _M_construct_aux<const char *>:__beg <- %R4
	@DEBUG_VALUE: _M_construct<const char *>:__beg <- %R4
	@DEBUG_VALUE: length:__s <- %R4
	@DEBUG_VALUE: basic_string:__s <- %R4
	.loc	50 232 16               @ /usr/bin/../lib/gcc/arm-linux-gnueabihf/6.3.0/../../../../include/c++/6.3.0/bits/basic_string.tcc:232:16
	ldr	r0, [sp, #56]
.Ltmp102:
	@DEBUG_VALUE: _M_set_length:__n <- %R0
	@DEBUG_VALUE: _M_length:__length <- %R0
	@DEBUG_VALUE: _M_construct<const char *>:__dnew <- %R0
	.loc	27 243 14               @ /usr/bin/../lib/gcc/arm-linux-gnueabihf/6.3.0/../../../../include/c++/6.3.0/bits/char_traits.h:243:14
	mov	r2, #0
.Ltmp103:
	.loc	26 132 26               @ /usr/bin/../lib/gcc/arm-linux-gnueabihf/6.3.0/../../../../include/c++/6.3.0/bits/basic_string.h:132:26
	str	r0, [sp, #36]
	add	r3, sp, #8
.Ltmp104:
	@DEBUG_VALUE: _M_data:this <- %R3
	@DEBUG_VALUE: _M_length:this <- %R3
	@DEBUG_VALUE: _M_set_length:__n <- 3
	@DEBUG_VALUE: _M_set_length:this <- %R3
	@DEBUG_VALUE: _M_data:this <- %R3
	@DEBUG_VALUE: _M_construct<const char *>:__dnew <- 3
	@DEBUG_VALUE: _M_construct<const char *>:this <- %R3
	@DEBUG_VALUE: _M_construct_aux<const char *>:this <- %R3
	@DEBUG_VALUE: _M_construct<const char *>:this <- %R3
	@DEBUG_VALUE: _S_copy_chars:__p <- %R5
	@DEBUG_VALUE: _S_copy:__d <- %R5
	@DEBUG_VALUE: _M_local_data:this <- %R3
	.loc	26 136 28               @ /usr/bin/../lib/gcc/arm-linux-gnueabihf/6.3.0/../../../../include/c++/6.3.0/bits/basic_string.h:136:28
	ldr	r1, [sp, #32]
.Ltmp105:
	.loc	26 142 51               @ /usr/bin/../lib/gcc/arm-linux-gnueabihf/6.3.0/../../../../include/c++/6.3.0/bits/basic_string.h:142:51
	add	r5, r3, #8
.Ltmp106:
	.loc	27 243 14               @ /usr/bin/../lib/gcc/arm-linux-gnueabihf/6.3.0/../../../../include/c++/6.3.0/bits/char_traits.h:243:14
	strb	r2, [r1, r0]
.Ltmp107:
	.loc	27 290 33               @ /usr/bin/../lib/gcc/arm-linux-gnueabihf/6.3.0/../../../../include/c++/6.3.0/bits/char_traits.h:290:33
	mov	r0, #105
.Ltmp108:
	@DEBUG_VALUE: _S_copy:__n <- 3
	.loc	26 110 25               @ /usr/bin/../lib/gcc/arm-linux-gnueabihf/6.3.0/../../../../include/c++/6.3.0/bits/basic_string.h:110:25
	str	r5, [sp, #8]
.Ltmp109:
	.loc	27 290 33               @ /usr/bin/../lib/gcc/arm-linux-gnueabihf/6.3.0/../../../../include/c++/6.3.0/bits/char_traits.h:290:33
	strb	r0, [sp, #18]
	movw	r0, #30055
	strh	r0, [sp, #16]
	mov	r0, #3
.Ltmp110:
	@DEBUG_VALUE: _M_length:__length <- 3
	.loc	26 132 26               @ /usr/bin/../lib/gcc/arm-linux-gnueabihf/6.3.0/../../../../include/c++/6.3.0/bits/basic_string.h:132:26
	str	r0, [sp, #12]
.Ltmp111:
	.loc	27 243 14               @ /usr/bin/../lib/gcc/arm-linux-gnueabihf/6.3.0/../../../../include/c++/6.3.0/bits/char_traits.h:243:14
	strb	r2, [sp, #19]
.Ltmp112:
	.loc	3 73 6 discriminator 2  @ /root/Bela/projects/gran_copy/render.cpp:73:6
.Ltmp41:
	movw	r0, :lower16:gui
	add	r1, sp, #32
.Ltmp113:
	@DEBUG_VALUE: _M_data:this <- %R1
	@DEBUG_VALUE: _M_length:this <- %R1
	movt	r0, :upper16:gui
	movw	r2, #5555
	bl	_ZN3Gui5setupENSt7__cxx1112basic_stringIcSt11char_traitsIcESaIcEEEjS5_
.Ltmp114:
.Ltmp42:
.Ltmp115:
@ BB#19:
	@DEBUG_VALUE: assign:__c2 <- %R4
	@DEBUG_VALUE: _S_copy:__s <- %R4
	@DEBUG_VALUE: _S_copy_chars:__k1 <- %R4
	@DEBUG_VALUE: _M_construct<const char *>:__beg <- %R4
	@DEBUG_VALUE: _M_construct_aux<const char *>:__beg <- %R4
	@DEBUG_VALUE: _M_construct<const char *>:__beg <- %R4
	@DEBUG_VALUE: length:__s <- %R4
	@DEBUG_VALUE: basic_string:__s <- %R4
	.loc	26 136 28               @ /usr/bin/../lib/gcc/arm-linux-gnueabihf/6.3.0/../../../../include/c++/6.3.0/bits/basic_string.h:136:28
	ldr	r0, [sp, #8]
.Ltmp116:
	@DEBUG_VALUE: deallocate:__p <- %R0
	@DEBUG_VALUE: deallocate:__p <- %R0
	.loc	26 180 6                @ /usr/bin/../lib/gcc/arm-linux-gnueabihf/6.3.0/../../../../include/c++/6.3.0/bits/basic_string.h:180:6
	cmp	r0, r5
	beq	.LBB2_21
.Ltmp117:
@ BB#20:
	@DEBUG_VALUE: deallocate:__p <- %R0
	@DEBUG_VALUE: deallocate:__p <- %R0
	@DEBUG_VALUE: assign:__c2 <- %R4
	@DEBUG_VALUE: _S_copy:__s <- %R4
	@DEBUG_VALUE: _S_copy_chars:__k1 <- %R4
	@DEBUG_VALUE: _M_construct<const char *>:__beg <- %R4
	@DEBUG_VALUE: _M_construct_aux<const char *>:__beg <- %R4
	@DEBUG_VALUE: _M_construct<const char *>:__beg <- %R4
	@DEBUG_VALUE: length:__s <- %R4
	@DEBUG_VALUE: basic_string:__s <- %R4
	.loc	10 110 9                @ /usr/bin/../lib/gcc/arm-linux-gnueabihf/6.3.0/../../../../include/c++/6.3.0/ext/new_allocator.h:110:9
	bl	_ZdlPv
.Ltmp118:
.LBB2_21:                               @ %_ZNSt7__cxx1112basic_stringIcSt11char_traitsIcESaIcEED2Ev.exit32
	@DEBUG_VALUE: assign:__c2 <- %R4
	@DEBUG_VALUE: _S_copy:__s <- %R4
	@DEBUG_VALUE: _S_copy_chars:__k1 <- %R4
	@DEBUG_VALUE: _M_construct<const char *>:__beg <- %R4
	@DEBUG_VALUE: _M_construct_aux<const char *>:__beg <- %R4
	@DEBUG_VALUE: _M_construct<const char *>:__beg <- %R4
	@DEBUG_VALUE: length:__s <- %R4
	@DEBUG_VALUE: basic_string:__s <- %R4
	.loc	26 136 28               @ /usr/bin/../lib/gcc/arm-linux-gnueabihf/6.3.0/../../../../include/c++/6.3.0/bits/basic_string.h:136:28
	ldr	r0, [sp, #32]
.Ltmp119:
	@DEBUG_VALUE: deallocate:__p <- %R0
	@DEBUG_VALUE: deallocate:__p <- %R0
	.loc	26 180 6                @ /usr/bin/../lib/gcc/arm-linux-gnueabihf/6.3.0/../../../../include/c++/6.3.0/bits/basic_string.h:180:6
	cmp	r0, r6
	beq	.LBB2_23
.Ltmp120:
@ BB#22:
	@DEBUG_VALUE: deallocate:__p <- %R0
	@DEBUG_VALUE: deallocate:__p <- %R0
	@DEBUG_VALUE: assign:__c2 <- %R4
	@DEBUG_VALUE: _S_copy:__s <- %R4
	@DEBUG_VALUE: _S_copy_chars:__k1 <- %R4
	@DEBUG_VALUE: _M_construct<const char *>:__beg <- %R4
	@DEBUG_VALUE: _M_construct_aux<const char *>:__beg <- %R4
	@DEBUG_VALUE: _M_construct<const char *>:__beg <- %R4
	@DEBUG_VALUE: length:__s <- %R4
	@DEBUG_VALUE: basic_string:__s <- %R4
	.loc	10 110 9                @ /usr/bin/../lib/gcc/arm-linux-gnueabihf/6.3.0/../../../../include/c++/6.3.0/ext/new_allocator.h:110:9
	bl	_ZdlPv
.Ltmp121:
.LBB2_23:                               @ %_ZNSt7__cxx1112basic_stringIcSt11char_traitsIcESaIcEED2Ev.exit25
	@DEBUG_VALUE: assign:__c2 <- %R4
	@DEBUG_VALUE: _S_copy:__s <- %R4
	@DEBUG_VALUE: _S_copy_chars:__k1 <- %R4
	@DEBUG_VALUE: _M_construct<const char *>:__beg <- %R4
	@DEBUG_VALUE: _M_construct_aux<const char *>:__beg <- %R4
	@DEBUG_VALUE: _M_construct<const char *>:__beg <- %R4
	@DEBUG_VALUE: length:__s <- %R4
	@DEBUG_VALUE: basic_string:__s <- %R4
	.loc	3 74 6                  @ /root/Bela/projects/gran_copy/render.cpp:74:6
	movw	r0, :lower16:gui
	mov	r1, #102
	movt	r0, :upper16:gui
	mov	r2, #8
	bl	_ZN3Gui9setBufferEcj
	mov	r0, #1
.Ltmp122:
.LBB2_24:                               @ %.loopexit
	.loc	3 81 1 discriminator 3  @ /root/Bela/projects/gran_copy/render.cpp:81:1
	sub	sp, r11, #48
	vpop	{d8, d9}
	add	sp, sp, #4
	pop	{r4, r5, r6, r7, r8, r9, r10, r11, pc}
.LBB2_25:
.Ltmp123:
	@DEBUG_VALUE: _S_copy:__n <- %R5
	@DEBUG_VALUE: assign:__c2 <- %R4
	@DEBUG_VALUE: _S_copy:__s <- %R4
	@DEBUG_VALUE: _S_copy_chars:__k1 <- %R4
	@DEBUG_VALUE: _M_construct<const char *>:__beg <- %R4
	@DEBUG_VALUE: _M_construct_aux<const char *>:__beg <- %R4
	@DEBUG_VALUE: _M_construct<const char *>:__beg <- %R4
	@DEBUG_VALUE: length:__s <- %R4
	@DEBUG_VALUE: basic_string:__s <- %R4
.Ltmp40:
	mov	r4, r0
.Ltmp124:
	b	.LBB2_30
.Ltmp125:
.LBB2_26:
	@DEBUG_VALUE: assign:__c2 <- %R4
	@DEBUG_VALUE: _S_copy:__s <- %R4
	@DEBUG_VALUE: _S_copy_chars:__k1 <- %R4
	@DEBUG_VALUE: _M_construct<const char *>:__beg <- %R4
	@DEBUG_VALUE: _M_construct_aux<const char *>:__beg <- %R4
	@DEBUG_VALUE: _M_construct<const char *>:__beg <- %R4
	@DEBUG_VALUE: length:__s <- %R4
	@DEBUG_VALUE: basic_string:__s <- %R4
.Ltmp43:
	mov	r4, r0
.Ltmp126:
	.loc	26 136 28               @ /usr/bin/../lib/gcc/arm-linux-gnueabihf/6.3.0/../../../../include/c++/6.3.0/bits/basic_string.h:136:28
	ldr	r0, [sp, #8]
.Ltmp127:
	@DEBUG_VALUE: deallocate:__p <- %R0
	@DEBUG_VALUE: deallocate:__p <- %R0
	.loc	26 180 6                @ /usr/bin/../lib/gcc/arm-linux-gnueabihf/6.3.0/../../../../include/c++/6.3.0/bits/basic_string.h:180:6
	cmp	r0, r5
	beq	.LBB2_28
.Ltmp128:
@ BB#27:
	@DEBUG_VALUE: deallocate:__p <- %R0
	@DEBUG_VALUE: deallocate:__p <- %R0
	.loc	10 110 9                @ /usr/bin/../lib/gcc/arm-linux-gnueabihf/6.3.0/../../../../include/c++/6.3.0/ext/new_allocator.h:110:9
	bl	_ZdlPv
.Ltmp129:
.LBB2_28:                               @ %_ZNSt7__cxx1112basic_stringIcSt11char_traitsIcESaIcEED2Ev.exit23
	.loc	26 136 28               @ /usr/bin/../lib/gcc/arm-linux-gnueabihf/6.3.0/../../../../include/c++/6.3.0/bits/basic_string.h:136:28
	ldr	r0, [sp, #32]
.Ltmp130:
	@DEBUG_VALUE: deallocate:__p <- %R0
	@DEBUG_VALUE: deallocate:__p <- %R0
	.loc	26 180 6                @ /usr/bin/../lib/gcc/arm-linux-gnueabihf/6.3.0/../../../../include/c++/6.3.0/bits/basic_string.h:180:6
	cmp	r0, r6
	beq	.LBB2_30
	b	.LBB2_31
.Ltmp131:
.LBB2_29:
.Ltmp37:
	mov	r4, r0
.Ltmp132:
	.loc	7 160 37                @ /usr/bin/../lib/gcc/arm-linux-gnueabihf/6.3.0/../../../../include/c++/6.3.0/bits/stl_vector.h:160:37
	ldr	r0, [sp, #56]
.Ltmp133:
	@DEBUG_VALUE: _M_deallocate:__p <- %R0
	@DEBUG_VALUE: deallocate:__p <- %R0
	@DEBUG_VALUE: deallocate:__p <- %R0
	.loc	7 177 6                 @ /usr/bin/../lib/gcc/arm-linux-gnueabihf/6.3.0/../../../../include/c++/6.3.0/bits/stl_vector.h:177:6
	cmp	r0, #0
	bne	.LBB2_31
.Ltmp134:
.LBB2_30:                               @ %_ZNSt7__cxx1112basic_stringIcSt11char_traitsIcESaIcEED2Ev.exit
	mov	r0, r4
	mov	lr, pc
	b	_Unwind_Resume
.LBB2_31:
.Ltmp135:
	.loc	10 110 9                @ /usr/bin/../lib/gcc/arm-linux-gnueabihf/6.3.0/../../../../include/c++/6.3.0/ext/new_allocator.h:110:9
	bl	_ZdlPv
	mov	r0, r4
	mov	lr, pc
	b	_Unwind_Resume
.Ltmp136:
	.p2align	2
@ BB#32:
.LCPI2_0:
	.long	981668463               @ float 0.00100000005
.Lfunc_end2:
	.size	setup, .Lfunc_end2-setup
	.cfi_endproc
	.file	51 "<stdin>"
	.globl	__gxx_personality_v0
	.personality __gxx_personality_v0
	.handlerdata
	.p2align	2
GCC_except_table2:
.Lexception0:
	.byte	255                     @ @LPStart Encoding = omit
	.byte	0                       @ @TType Encoding = absptr
	.asciz	"\303\200"              @ @TType base offset
	.byte	3                       @ Call site Encoding = udata4
	.byte	65                      @ Call site table length
	.long	.Ltmp31-.Lfunc_begin2   @ >> Call Site 1 <<
	.long	.Ltmp36-.Ltmp31         @   Call between .Ltmp31 and .Ltmp36
	.long	.Ltmp37-.Lfunc_begin2   @     jumps to .Ltmp37
	.byte	0                       @   On action: cleanup
	.long	.Ltmp38-.Lfunc_begin2   @ >> Call Site 2 <<
	.long	.Ltmp39-.Ltmp38         @   Call between .Ltmp38 and .Ltmp39
	.long	.Ltmp40-.Lfunc_begin2   @     jumps to .Ltmp40
	.byte	0                       @   On action: cleanup
	.long	.Ltmp39-.Lfunc_begin2   @ >> Call Site 3 <<
	.long	.Ltmp41-.Ltmp39         @   Call between .Ltmp39 and .Ltmp41
	.long	0                       @     has no landing pad
	.byte	0                       @   On action: cleanup
	.long	.Ltmp41-.Lfunc_begin2   @ >> Call Site 4 <<
	.long	.Ltmp42-.Ltmp41         @   Call between .Ltmp41 and .Ltmp42
	.long	.Ltmp43-.Lfunc_begin2   @     jumps to .Ltmp43
	.byte	0                       @   On action: cleanup
	.long	.Ltmp42-.Lfunc_begin2   @ >> Call Site 5 <<
	.long	.Lfunc_end2-.Ltmp42     @   Call between .Ltmp42 and .Lfunc_end2
	.long	0                       @     has no landing pad
	.byte	0                       @   On action: cleanup
	.p2align	2
	.fnend

	.globl	_Z11triggerNotei
	.p2align	2
	.type	_Z11triggerNotei,%function
_Z11triggerNotei:                       @ @_Z11triggerNotei
.Lfunc_begin3:
	.loc	3 83 0                  @ /root/Bela/projects/gran_copy/render.cpp:83:0
	.fnstart
	.cfi_startproc
@ BB#0:
	@DEBUG_VALUE: triggerNote:sensor_idx <- %R0
	.loc	3 84 10 prologue_end    @ /root/Bela/projects/gran_copy/render.cpp:84:10
	movw	r1, :lower16:.L_MergedGlobals
	mov	r2, #1
	movt	r1, :upper16:.L_MergedGlobals
	strb	r2, [r1]
	mov	r2, #0
	.loc	3 85 15                 @ /root/Bela/projects/gran_copy/render.cpp:85:15
	str	r2, [r1, #40]
.Ltmp137:
	@DEBUG_VALUE: operator[]:__n <- %R0
	.loc	7 781 32                @ /usr/bin/../lib/gcc/arm-linux-gnueabihf/6.3.0/../../../../include/c++/6.3.0/bits/stl_vector.h:781:32
	ldr	r2, [r1, #48]
.Ltmp138:
	.loc	3 86 10                 @ /root/Bela/projects/gran_copy/render.cpp:86:10
	ldr	r0, [r2, r0, lsl #2]
.Ltmp139:
	.loc	3 86 8 is_stmt 0        @ /root/Bela/projects/gran_copy/render.cpp:86:8
	str	r0, [r1, #44]
	.loc	3 87 1 is_stmt 1        @ /root/Bela/projects/gran_copy/render.cpp:87:1
	bx	lr
.Ltmp140:
.Lfunc_end3:
	.size	_Z11triggerNotei, .Lfunc_end3-_Z11triggerNotei
	.cfi_endproc
	.fnend

	.globl	render
	.p2align	2
	.type	render,%function
render:                                 @ @render
.Lfunc_begin4:
	.loc	3 93 0                  @ /root/Bela/projects/gran_copy/render.cpp:93:0
	.fnstart
	.cfi_startproc
@ BB#0:
	.save	{r4, r5, r6, r7, r8, r9, r10, r11, lr}
	push	{r4, r5, r6, r7, r8, r9, r10, r11, lr}
.Ltmp141:
	.cfi_def_cfa_offset 36
.Ltmp142:
	.cfi_offset lr, -4
.Ltmp143:
	.cfi_offset r11, -8
.Ltmp144:
	.cfi_offset r10, -12
.Ltmp145:
	.cfi_offset r9, -16
.Ltmp146:
	.cfi_offset r8, -20
.Ltmp147:
	.cfi_offset r7, -24
.Ltmp148:
	.cfi_offset r6, -28
.Ltmp149:
	.cfi_offset r5, -32
.Ltmp150:
	.cfi_offset r4, -36
	.setfp	r11, sp, #28
	add	r11, sp, #28
.Ltmp151:
	.cfi_def_cfa r11, 8
	.pad	#4
	sub	sp, sp, #4
	.vsave	{d8, d9, d10, d11, d12}
	vpush	{d8, d9, d10, d11, d12}
.Ltmp152:
	.cfi_offset d12, -48
.Ltmp153:
	.cfi_offset d11, -56
.Ltmp154:
	.cfi_offset d10, -64
.Ltmp155:
	.cfi_offset d9, -72
.Ltmp156:
	.cfi_offset d8, -80
	.pad	#24
	sub	sp, sp, #24
	@DEBUG_VALUE: render:context <- %R0
	@DEBUG_VALUE: render:userData <- %R1
	mov	r4, r0
.Ltmp157:
	@DEBUG_VALUE: render:context <- %R4
	.loc	3 100 27 prologue_end discriminator 1 @ /root/Bela/projects/gran_copy/render.cpp:100:27
	movw	r0, :lower16:gui
	movt	r0, :upper16:gui
	mov	r1, #0
.Ltmp158:
	bl	_ZN3Gui13getDataBufferEj
.Ltmp159:
	@DEBUG_VALUE: getAsFloat:this <- %R0
	@DEBUG_VALUE: render:buffer <- %R0
	.loc	7 892 42                @ /usr/bin/../lib/gcc/arm-linux-gnueabihf/6.3.0/../../../../include/c++/6.3.0/bits/stl_vector.h:892:42
	ldr	r0, [r0, #4]
.Ltmp160:
	@DEBUG_VALUE: render:data <- %R0
	.loc	3 106 11                @ /root/Bela/projects/gran_copy/render.cpp:106:11
	movw	r6, :lower16:.L_MergedGlobals
	.loc	3 105 25                @ /root/Bela/projects/gran_copy/render.cpp:105:25
	vldr	s16, .LCPI4_0
	.loc	3 106 11                @ /root/Bela/projects/gran_copy/render.cpp:106:11
	movt	r6, :upper16:.L_MergedGlobals
	.loc	3 106 13 is_stmt 0      @ /root/Bela/projects/gran_copy/render.cpp:106:13
	vldr	s2, [r0, #12]
	.loc	3 103 16 is_stmt 1      @ /root/Bela/projects/gran_copy/render.cpp:103:16
	vldr	s18, [r0]
.Ltmp161:
	@DEBUG_VALUE: render:speed <- %S18
	.loc	3 107 26                @ /root/Bela/projects/gran_copy/render.cpp:107:26
	vmul.f32	d16, d1, d8
	.loc	3 104 19                @ /root/Bela/projects/gran_copy/render.cpp:104:19
	vldr	s20, [r0, #4]
.Ltmp162:
	@DEBUG_VALUE: render:duration <- %S20
	.loc	3 105 18                @ /root/Bela/projects/gran_copy/render.cpp:105:18
	vldr	s0, [r0, #8]
	.loc	3 106 11                @ /root/Bela/projects/gran_copy/render.cpp:106:11
	vstr	s2, [r6, #24]
	.loc	3 107 45                @ /root/Bela/projects/gran_copy/render.cpp:107:45
	vldr	s4, [r4, #32]
	.loc	3 107 34 is_stmt 0      @ /root/Bela/projects/gran_copy/render.cpp:107:34
	vmul.f32	d1, d16, d2
	.loc	3 107 14                @ /root/Bela/projects/gran_copy/render.cpp:107:14
	vstr	s2, [r6, #20]
	.loc	3 110 21 is_stmt 1      @ /root/Bela/projects/gran_copy/render.cpp:110:21
	vldr	s4, [r0, #28]
	.loc	3 108 16                @ /root/Bela/projects/gran_copy/render.cpp:108:16
	vldr	s2, [r0, #16]
	.loc	3 110 21                @ /root/Bela/projects/gran_copy/render.cpp:110:21
	vcvt.s32.f32	d2, d2
	vmov	r0, s4
.Ltmp163:
	@DEBUG_VALUE: render:sensor_index <- %R0
	@DEBUG_VALUE: triggerNote:sensor_idx <- %R0
	@DEBUG_VALUE: operator[]:__n <- %R0
	.loc	3 112 24                @ /root/Bela/projects/gran_copy/render.cpp:112:24
	cmp	r0, #1
	blt	.LBB4_3
.Ltmp164:
@ BB#1:
	@DEBUG_VALUE: operator[]:__n <- %R0
	@DEBUG_VALUE: triggerNote:sensor_idx <- %R0
	@DEBUG_VALUE: render:sensor_index <- %R0
	@DEBUG_VALUE: render:duration <- %S20
	@DEBUG_VALUE: render:speed <- %S18
	@DEBUG_VALUE: render:context <- %R4
	ldrb	r1, [r6]
	cmp	r1, #0
	bne	.LBB4_3
.Ltmp165:
@ BB#2:
	@DEBUG_VALUE: operator[]:__n <- %R0
	@DEBUG_VALUE: triggerNote:sensor_idx <- %R0
	@DEBUG_VALUE: render:sensor_index <- %R0
	@DEBUG_VALUE: render:duration <- %S20
	@DEBUG_VALUE: render:speed <- %S18
	@DEBUG_VALUE: render:context <- %R4
	.loc	3 84 10                 @ /root/Bela/projects/gran_copy/render.cpp:84:10
	mov	r1, #1
	strb	r1, [r6]
	mov	r1, #0
	.loc	3 85 15                 @ /root/Bela/projects/gran_copy/render.cpp:85:15
	str	r1, [r6, #40]
.Ltmp166:
	.loc	7 781 32                @ /usr/bin/../lib/gcc/arm-linux-gnueabihf/6.3.0/../../../../include/c++/6.3.0/bits/stl_vector.h:781:32
	ldr	r1, [r6, #48]
.Ltmp167:
	.loc	3 86 10                 @ /root/Bela/projects/gran_copy/render.cpp:86:10
	ldr	r0, [r1, r0, lsl #2]
.Ltmp168:
	.loc	3 86 8 is_stmt 0        @ /root/Bela/projects/gran_copy/render.cpp:86:8
	str	r0, [r6, #44]
.Ltmp169:
.LBB4_3:                                @ %.preheader76
	@DEBUG_VALUE: render:duration <- %S20
	@DEBUG_VALUE: render:speed <- %S18
	@DEBUG_VALUE: render:context <- %R4
	.loc	3 119 17 is_stmt 1 discriminator 1 @ /root/Bela/projects/gran_copy/render.cpp:119:17
	ldr	r1, [r6, #12]
	.loc	3 119 2 is_stmt 0 discriminator 1 @ /root/Bela/projects/gran_copy/render.cpp:119:2
	cmp	r1, #1
	blt	.LBB4_6
.Ltmp170:
@ BB#4:                                 @ %.lr.ph86.preheader
	@DEBUG_VALUE: render:duration <- %S20
	@DEBUG_VALUE: render:speed <- %S18
	@DEBUG_VALUE: render:context <- %R4
	.loc	3 105 25 is_stmt 1      @ /root/Bela/projects/gran_copy/render.cpp:105:25
	vmul.f32	d11, d0, d8
	movw	r5, :lower16:grain_generators
	.loc	3 108 23                @ /root/Bela/projects/gran_copy/render.cpp:108:23
	vmul.f32	d12, d1, d8
.Ltmp171:
	@DEBUG_VALUE: render:spray <- %S24
	@DEBUG_VALUE: render:filePos <- %S22
	mov	r7, #0
	movt	r5, :upper16:grain_generators
.Ltmp172:
.LBB4_5:                                @ %.lr.ph86
                                        @ =>This Inner Loop Header: Depth=1
	.loc	3 120 38                @ /root/Bela/projects/gran_copy/render.cpp:120:38
	vldr	s0, [r6, #44]
	.loc	3 120 23 is_stmt 0      @ /root/Bela/projects/gran_copy/render.cpp:120:23
	mov	r0, r5
	.loc	3 120 37                @ /root/Bela/projects/gran_copy/render.cpp:120:37
	vmul.f32	d0, d0, d9
	.loc	3 120 23                @ /root/Bela/projects/gran_copy/render.cpp:120:23
                                        @ kill: %S0<def> %S0<kill> %D0<kill>
	bl	_ZN14MonoFilePlayer8setSpeedEf
	.loc	3 121 55 is_stmt 1      @ /root/Bela/projects/gran_copy/render.cpp:121:55
	vldr	s0, [r4, #32]
	.loc	3 121 23 is_stmt 0      @ /root/Bela/projects/gran_copy/render.cpp:121:23
	mov	r0, r5
	.loc	3 121 44                @ /root/Bela/projects/gran_copy/render.cpp:121:44
	vmul.f32	d16, d0, d10
	.loc	3 121 35                @ /root/Bela/projects/gran_copy/render.cpp:121:35
	vcvt.s32.f32	d0, d16
	vmov	r1, s0
	.loc	3 121 23                @ /root/Bela/projects/gran_copy/render.cpp:121:23
	bl	_ZN14MonoFilePlayer11setDurationEi
	.loc	3 122 52 is_stmt 1      @ /root/Bela/projects/gran_copy/render.cpp:122:52
	vldr	s0, [r4, #32]
	.loc	3 122 23 is_stmt 0      @ /root/Bela/projects/gran_copy/render.cpp:122:23
	mov	r0, r5
	.loc	3 122 41                @ /root/Bela/projects/gran_copy/render.cpp:122:41
	vmul.f32	d16, d11, d0
	.loc	3 122 34                @ /root/Bela/projects/gran_copy/render.cpp:122:34
	vcvt.s32.f32	d0, d16
	vmov	r1, s0
	.loc	3 122 23                @ /root/Bela/projects/gran_copy/render.cpp:122:23
	bl	_ZN14MonoFilePlayer10setFilePosEi
	.loc	3 123 49 is_stmt 1      @ /root/Bela/projects/gran_copy/render.cpp:123:49
	vldr	s0, [r4, #32]
.Ltmp173:
	.loc	3 119 28 discriminator 3 @ /root/Bela/projects/gran_copy/render.cpp:119:28
	add	r7, r7, #1
.Ltmp174:
	@DEBUG_VALUE: i <- %R7
	.loc	3 119 17 is_stmt 0 discriminator 1 @ /root/Bela/projects/gran_copy/render.cpp:119:17
	ldr	r1, [r6, #12]
.Ltmp175:
	.loc	3 123 38 is_stmt 1      @ /root/Bela/projects/gran_copy/render.cpp:123:38
	vmul.f32	d0, d12, d0
.Ltmp176:
	@DEBUG_VALUE: setSpray:spray <- %S0
	.loc	3 119 2 discriminator 1 @ /root/Bela/projects/gran_copy/render.cpp:119:2
	cmp	r7, r1
.Ltmp177:
	.loc	23 35 44                @ /root/Bela/projects/gran_copy/./GrainGenerator/GrainGenerator.h:35:44
	vstr	s0, [r5, #36]
.Ltmp178:
	.loc	3 119 16 discriminator 1 @ /root/Bela/projects/gran_copy/render.cpp:119:16
	add	r5, r5, #52
	blt	.LBB4_5
.Ltmp179:
.LBB4_6:                                @ %.preheader75
	.loc	3 128 42 discriminator 1 @ /root/Bela/projects/gran_copy/render.cpp:128:42
	ldr	r0, [r4, #20]
	.loc	3 128 5 is_stmt 0 discriminator 1 @ /root/Bela/projects/gran_copy/render.cpp:128:5
	cmp	r0, #0
	beq	.LBB4_31
@ BB#7:                                 @ %.lr.ph83
.Ltmp180:
	.loc	3 131 11 is_stmt 1      @ /root/Bela/projects/gran_copy/render.cpp:131:11
	ldrb	r9, [r6, #1]
.Ltmp181:
	.loc	3 151 17                @ /root/Bela/projects/gran_copy/render.cpp:151:17
	vmov.f32	d9, #1.000000e+00
	add	r0, sp, #16
	mov	r8, #0
	mov	r10, #0
.Ltmp182:
	.loc	3 128 5 discriminator 1 @ /root/Bela/projects/gran_copy/render.cpp:128:5
	add	r0, r0, #4
.Ltmp183:
	.loc	3 131 11                @ /root/Bela/projects/gran_copy/render.cpp:131:11
	str	r0, [sp, #4]            @ 4-byte Spill
.Ltmp184:
	.loc	3 128 5 discriminator 1 @ /root/Bela/projects/gran_copy/render.cpp:128:5
	str	r4, [sp, #12]           @ 4-byte Spill
.LBB4_8:                                @ =>This Loop Header: Depth=1
                                        @     Child Loop BB4_14 Depth 2
                                        @     Child Loop BB4_24 Depth 2
                                        @     Child Loop BB4_27 Depth 2
.Ltmp185:
	.loc	3 131 16                @ /root/Bela/projects/gran_copy/render.cpp:131:16
	tst	r9, #255
	bne	.LBB4_10
@ BB#9:                                 @   in Loop: Header=BB4_8 Depth=1
	.loc	3 131 36 is_stmt 0 discriminator 1 @ /root/Bela/projects/gran_copy/render.cpp:131:36
	vldr	s0, [r6, #32]
	.loc	3 131 19 discriminator 1 @ /root/Bela/projects/gran_copy/render.cpp:131:19
	ldr	r0, [r6, #40]
	.loc	3 131 51 discriminator 1 @ /root/Bela/projects/gran_copy/render.cpp:131:51
	vmul.f32	d16, d0, d8
	.loc	3 131 67 discriminator 1 @ /root/Bela/projects/gran_copy/render.cpp:131:67
	vldr	s0, [r4, #32]
	.loc	3 131 19 discriminator 1 @ /root/Bela/projects/gran_copy/render.cpp:131:19
	vmov	s2, r0
	vcvt.f32.s32	d1, d1
	.loc	3 131 57 discriminator 1 @ /root/Bela/projects/gran_copy/render.cpp:131:57
	vmul.f32	d0, d16, d0
	.loc	3 131 10 discriminator 1 @ /root/Bela/projects/gran_copy/render.cpp:131:10
	vcmpe.f32	s2, s0
	vmrs	APSR_nzcv, fpscr
	movge	r0, #0
.Ltmp186:
	.loc	3 132 12 is_stmt 1      @ /root/Bela/projects/gran_copy/render.cpp:132:12
	strbge	r0, [r6]
.Ltmp187:
.LBB4_10:                               @   in Loop: Header=BB4_8 Depth=1
	@DEBUG_VALUE: in <- 0.000000e+00
	.loc	3 140 7                 @ /root/Bela/projects/gran_copy/render.cpp:140:7
	ldr	r0, [r6, #8]
.Ltmp188:
	.loc	3 140 7 is_stmt 0       @ /root/Bela/projects/gran_copy/render.cpp:140:7
	cmp	r0, #0
	bne	.LBB4_12
@ BB#11:                                @   in Loop: Header=BB4_8 Depth=1
.Ltmp189:
	.loc	3 141 21 is_stmt 1      @ /root/Bela/projects/gran_copy/render.cpp:141:21
	ldr	r0, [r6, #16]
	.loc	3 141 4 is_stmt 0       @ /root/Bela/projects/gran_copy/render.cpp:141:4
	movw	r1, :lower16:grain_generators
	movt	r1, :upper16:grain_generators
	mov	r2, #52
	mla	r0, r0, r2, r1
	.loc	3 141 36                @ /root/Bela/projects/gran_copy/render.cpp:141:36
	bl	_ZN14MonoFilePlayer7triggerEv
.Ltmp190:
	.loc	3 145 18 is_stmt 1 discriminator 1 @ /root/Bela/projects/gran_copy/render.cpp:145:18
	ldr	r1, [r6, #12]
.LBB4_12:                               @ %.preheader74
                                        @   in Loop: Header=BB4_8 Depth=1
	vmov.i32	d10, #0x0
	.loc	3 145 3 is_stmt 0 discriminator 1 @ /root/Bela/projects/gran_copy/render.cpp:145:3
	cmp	r1, #1
	blt	.LBB4_15
.Ltmp191:
@ BB#13:                                @ %.lr.ph.preheader
                                        @   in Loop: Header=BB4_8 Depth=1
	.loc	3 141 4 is_stmt 1       @ /root/Bela/projects/gran_copy/render.cpp:141:4
	movw	r0, :lower16:grain_generators
	mov	r5, #0
	movt	r0, :upper16:grain_generators
.Ltmp192:
.LBB4_14:                               @ %.lr.ph
                                        @   Parent Loop BB4_8 Depth=1
                                        @ =>  This Inner Loop Header: Depth=2
	.loc	3 145 17 discriminator 1 @ /root/Bela/projects/gran_copy/render.cpp:145:17
	add	r4, r0, #52
.Ltmp193:
	.loc	3 146 30                @ /root/Bela/projects/gran_copy/render.cpp:146:30
	bl	_ZN14MonoFilePlayer7processEv
                                        @ kill: %S0<def> %S0<kill> %D0<def>
.Ltmp194:
	.loc	3 145 18 discriminator 1 @ /root/Bela/projects/gran_copy/render.cpp:145:18
	ldr	r1, [r6, #12]
	.loc	3 145 29 is_stmt 0 discriminator 3 @ /root/Bela/projects/gran_copy/render.cpp:145:29
	add	r5, r5, #1
.Ltmp195:
	@DEBUG_VALUE: i <- %R5
	@DEBUG_VALUE: in <- %S20
	.loc	3 146 7 is_stmt 1       @ /root/Bela/projects/gran_copy/render.cpp:146:7
	vadd.f32	d10, d0, d10
.Ltmp196:
	mov	r0, r4
.Ltmp197:
	.loc	3 145 3 discriminator 1 @ /root/Bela/projects/gran_copy/render.cpp:145:3
	cmp	r5, r1
	blt	.LBB4_14
.Ltmp198:
.LBB4_15:                               @ %._crit_edge
                                        @   in Loop: Header=BB4_8 Depth=1
	.loc	3 181 18                @ /root/Bela/projects/gran_copy/render.cpp:181:18
	ldr	r2, [r6, #40]
	.loc	3 151 35                @ /root/Bela/projects/gran_copy/render.cpp:151:35
	vldr	s0, [r6, #36]
.Ltmp199:
	.loc	3 159 17 discriminator 1 @ /root/Bela/projects/gran_copy/render.cpp:159:17
	ldrb	r3, [r6]
.Ltmp200:
	.loc	3 151 20                @ /root/Bela/projects/gran_copy/render.cpp:151:20
	vmov	s2, r2
.Ltmp201:
	.loc	3 159 8                 @ /root/Bela/projects/gran_copy/render.cpp:159:8
	ldrb	r9, [r6, #1]
.Ltmp202:
	.loc	3 151 20                @ /root/Bela/projects/gran_copy/render.cpp:151:20
	vcvt.f32.s32	d1, d1
.Ltmp203:
	.loc	3 159 13                @ /root/Bela/projects/gran_copy/render.cpp:159:13
	orr	r3, r3, r9
	tst	r3, #255
.Ltmp204:
	.loc	3 151 33                @ /root/Bela/projects/gran_copy/render.cpp:151:33
	vdiv.f32	s0, s2, s0
	.loc	3 151 17 is_stmt 0      @ /root/Bela/projects/gran_copy/render.cpp:151:17
	vsub.f32	d16, d9, d0
.Ltmp205:
	@DEBUG_VALUE: amp <- undef
	.loc	3 156 15 is_stmt 1      @ /root/Bela/projects/gran_copy/render.cpp:156:15
	vmul.f32	d0, d16, d10
	.loc	3 156 10 is_stmt 0      @ /root/Bela/projects/gran_copy/render.cpp:156:10
	vstr	s0, [sp, #16]
	.loc	3 157 10 is_stmt 1      @ /root/Bela/projects/gran_copy/render.cpp:157:10
	vstr	s0, [sp, #20]
	bne	.LBB4_17
@ BB#16:                                @   in Loop: Header=BB4_8 Depth=1
	vmov.i32	d0, #0x0
	mov	r3, #0
.Ltmp206:
	.loc	3 160 11                @ /root/Bela/projects/gran_copy/render.cpp:160:11
	str	r3, [sp, #16]
	.loc	3 161 11                @ /root/Bela/projects/gran_copy/render.cpp:161:11
	str	r3, [sp, #20]
.Ltmp207:
.LBB4_17:                               @ %.preheader
                                        @   in Loop: Header=BB4_8 Depth=1
	.loc	3 165 55 discriminator 1 @ /root/Bela/projects/gran_copy/render.cpp:165:55
	ldr	r0, [sp, #12]           @ 4-byte Reload
	ldr	r3, [r0, #28]
	.loc	3 165 6 is_stmt 0 discriminator 1 @ /root/Bela/projects/gran_copy/render.cpp:165:6
	cmp	r3, #0
	beq	.LBB4_28
@ BB#18:                                @ %.lr.ph80
                                        @   in Loop: Header=BB4_8 Depth=1
.Ltmp208:
	.file	52 "./include" "Bela.h"
	.loc	52 1276 26 is_stmt 1    @ ./include/Bela.h:1276:26
	mul	r5, r3, r10
	ldr	r0, [sp, #12]           @ 4-byte Reload
.Ltmp209:
	.loc	3 167 49                @ /root/Bela/projects/gran_copy/render.cpp:167:49
	vldr	s2, [r6, #4]
.Ltmp210:
	.loc	3 165 6 discriminator 1 @ /root/Bela/projects/gran_copy/render.cpp:165:6
	cmp	r3, #1
.Ltmp211:
	.loc	3 167 48                @ /root/Bela/projects/gran_copy/render.cpp:167:48
	vmul.f32	d0, d1, d0
	ldr	r7, [r0, #4]
.Ltmp212:
	.loc	52 1276 2               @ ./include/Bela.h:1276:2
	add	r5, r7, r5, lsl #2
.Ltmp213:
	@DEBUG_VALUE: channel <- 1
	.loc	52 1276 65 is_stmt 0    @ ./include/Bela.h:1276:65
	vstr	s0, [r5]
	beq	.LBB4_28
.Ltmp214:
@ BB#19:                                @ %._crit_edge88.lr.ph
                                        @   in Loop: Header=BB4_8 Depth=1
	.loc	3 165 6 is_stmt 1 discriminator 1 @ /root/Bela/projects/gran_copy/render.cpp:165:6
	sub	r4, r3, #1
	mov	r5, #1
	cmp	r4, #3
	bls	.LBB4_26
@ BB#20:                                @ %min.iters.checked
                                        @   in Loop: Header=BB4_8 Depth=1
	mov	r0, r4
	bfc	r0, #0, #2
	cmp	r0, #0
	beq	.LBB4_26
.Ltmp215:
@ BB#21:                                @ %vector.memcheck
                                        @   in Loop: Header=BB4_8 Depth=1
	str	r4, [sp, #8]            @ 4-byte Spill
.Ltmp216:
	.loc	3 131 11                @ /root/Bela/projects/gran_copy/render.cpp:131:11
	lsl	r4, r10, #2
.Ltmp217:
	.loc	3 165 6 discriminator 1 @ /root/Bela/projects/gran_copy/render.cpp:165:6
	mla	r4, r3, r4, r7
	add	lr, r6, #4
	add	r12, r4, #4
	cmp	r12, lr
	bhs	.LBB4_23
.Ltmp218:
@ BB#22:                                @ %vector.memcheck
                                        @   in Loop: Header=BB4_8 Depth=1
	.loc	3 131 11                @ /root/Bela/projects/gran_copy/render.cpp:131:11
	mov	r4, #4
	add	r4, r4, r10, lsl #2
.Ltmp219:
	.loc	3 165 6 discriminator 1 @ /root/Bela/projects/gran_copy/render.cpp:165:6
	mla	r4, r3, r4, r7
	cmp	r4, lr
	bhi	.LBB4_26
.LBB4_23:                               @ %vector.body.preheader
                                        @   in Loop: Header=BB4_8 Depth=1
	mla	r4, r3, r8, r7
.Ltmp220:
	.loc	3 167 49                @ /root/Bela/projects/gran_copy/render.cpp:167:49
	vld1.32	{d16[], d17[]}, [lr:32]
	mov	r12, r0
.Ltmp221:
	.loc	3 165 6 discriminator 1 @ /root/Bela/projects/gran_copy/render.cpp:165:6
	orr	r5, r12, #1
	ldr	lr, [sp, #4]            @ 4-byte Reload
	add	r4, r4, #4
.LBB4_24:                               @ %vector.body
                                        @   Parent Loop BB4_8 Depth=1
                                        @ =>  This Inner Loop Header: Depth=2
.Ltmp222:
	.loc	3 167 36                @ /root/Bela/projects/gran_copy/render.cpp:167:36
	vld1.32	{d18, d19}, [lr]!
.Ltmp223:
	.loc	3 165 6 discriminator 1 @ /root/Bela/projects/gran_copy/render.cpp:165:6
	subs	r12, r12, #4
.Ltmp224:
	.loc	3 167 48                @ /root/Bela/projects/gran_copy/render.cpp:167:48
	vmul.f32	q9, q8, q9
.Ltmp225:
	.loc	52 1276 65              @ ./include/Bela.h:1276:65
	vst1.32	{d18, d19}, [r4]!
.Ltmp226:
	.loc	3 165 6 discriminator 1 @ /root/Bela/projects/gran_copy/render.cpp:165:6
	bne	.LBB4_24
@ BB#25:                                @ %middle.block
                                        @   in Loop: Header=BB4_8 Depth=1
	ldr	r4, [sp, #8]            @ 4-byte Reload
	cmp	r4, r0
	beq	.LBB4_28
.LBB4_26:                               @ %._crit_edge88.preheader
                                        @   in Loop: Header=BB4_8 Depth=1
.Ltmp227:
	.loc	3 167 36                @ /root/Bela/projects/gran_copy/render.cpp:167:36
	mla	r4, r3, r10, r5
	add	r7, r7, r4, lsl #2
	add	r4, sp, #16
	add	r4, r4, r5, lsl #2
.LBB4_27:                               @ %._crit_edge88
                                        @   Parent Loop BB4_8 Depth=1
                                        @ =>  This Inner Loop Header: Depth=2
	vldr	s0, [r4]
.Ltmp228:
	.loc	3 165 80 discriminator 3 @ /root/Bela/projects/gran_copy/render.cpp:165:80
	add	r5, r5, #1
.Ltmp229:
	@DEBUG_VALUE: channel <- %R5
	.loc	3 167 49                @ /root/Bela/projects/gran_copy/render.cpp:167:49
	vldr	s2, [r6, #4]
.Ltmp230:
	.loc	3 165 44 discriminator 1 @ /root/Bela/projects/gran_copy/render.cpp:165:44
	add	r4, r4, #4
	.loc	3 165 6 is_stmt 0 discriminator 1 @ /root/Bela/projects/gran_copy/render.cpp:165:6
	cmp	r5, r3
.Ltmp231:
	.loc	3 167 48 is_stmt 1      @ /root/Bela/projects/gran_copy/render.cpp:167:48
	vmul.f32	d0, d1, d0
.Ltmp232:
	.loc	52 1276 65              @ ./include/Bela.h:1276:65
	vstr	s0, [r7]
.Ltmp233:
	.loc	3 165 44 discriminator 1 @ /root/Bela/projects/gran_copy/render.cpp:165:44
	add	r7, r7, #4
	blo	.LBB4_27
.Ltmp234:
.LBB4_28:                               @ %._crit_edge81
                                        @   in Loop: Header=BB4_8 Depth=1
	.loc	3 172 14                @ /root/Bela/projects/gran_copy/render.cpp:172:14
	ldr	r3, [r6, #8]
	add	r3, r3, #1
	str	r3, [r6, #8]
.Ltmp235:
	.loc	3 173 22                @ /root/Bela/projects/gran_copy/render.cpp:173:22
	vldr	s0, [r6, #20]
	.loc	3 173 10 is_stmt 0      @ /root/Bela/projects/gran_copy/render.cpp:173:10
	vmov	s2, r3
	vcvt.f32.s32	d1, d1
.Ltmp236:
	.loc	3 173 10                @ /root/Bela/projects/gran_copy/render.cpp:173:10
	vcmpe.f32	s2, s0
	vmrs	APSR_nzcv, fpscr
	blt	.LBB4_30
@ BB#29:                                @   in Loop: Header=BB4_8 Depth=1
	mov	r3, #0
.Ltmp237:
	.loc	3 174 16 is_stmt 1      @ /root/Bela/projects/gran_copy/render.cpp:174:16
	str	r3, [r6, #8]
	.loc	3 175 20                @ /root/Bela/projects/gran_copy/render.cpp:175:20
	ldr	r3, [r6, #16]
	add	r3, r3, #1
	.loc	3 176 10                @ /root/Bela/projects/gran_copy/render.cpp:176:10
	cmp	r3, r1
	movwge	r3, #0
.Ltmp238:
	.loc	3 177 21                @ /root/Bela/projects/gran_copy/render.cpp:177:21
	str	r3, [r6, #16]
.Ltmp239:
.LBB4_30:                               @   in Loop: Header=BB4_8 Depth=1
	ldr	r4, [sp, #12]           @ 4-byte Reload
	.loc	3 181 18                @ /root/Bela/projects/gran_copy/render.cpp:181:18
	add	r2, r2, #1
	str	r2, [r6, #40]
.Ltmp240:
	.loc	3 128 5 discriminator 1 @ /root/Bela/projects/gran_copy/render.cpp:128:5
	add	r8, r8, #4
	.loc	3 128 56 is_stmt 0 discriminator 3 @ /root/Bela/projects/gran_copy/render.cpp:128:56
	add	r10, r10, #1
.Ltmp241:
	@DEBUG_VALUE: n <- %R10
	.loc	3 128 42 discriminator 1 @ /root/Bela/projects/gran_copy/render.cpp:128:42
	ldr	r2, [r4, #20]
	.loc	3 128 5 discriminator 1 @ /root/Bela/projects/gran_copy/render.cpp:128:5
	cmp	r10, r2
	blo	.LBB4_8
.Ltmp242:
.LBB4_31:                               @ %._crit_edge84
	.loc	3 184 1 is_stmt 1       @ /root/Bela/projects/gran_copy/render.cpp:184:1
	sub	sp, r11, #72
	vpop	{d8, d9, d10, d11, d12}
	add	sp, sp, #4
	pop	{r4, r5, r6, r7, r8, r9, r10, r11, pc}
.Ltmp243:
	.p2align	2
@ BB#32:
.LCPI4_0:
	.long	981668463               @ float 0.00100000005
.Lfunc_end4:
	.size	render, .Lfunc_end4-render
	.cfi_endproc
	.fnend

	.globl	cleanup
	.p2align	2
	.type	cleanup,%function
cleanup:                                @ @cleanup
.Lfunc_begin5:
	.loc	3 187 0                 @ /root/Bela/projects/gran_copy/render.cpp:187:0
	.fnstart
	.cfi_startproc
@ BB#0:
	@DEBUG_VALUE: cleanup:context <- %R0
	@DEBUG_VALUE: cleanup:userData <- %R1
	.loc	3 189 1 prologue_end    @ /root/Bela/projects/gran_copy/render.cpp:189:1
	bx	lr
.Ltmp244:
.Lfunc_end5:
	.size	cleanup, .Lfunc_end5-cleanup
	.cfi_endproc
	.fnend

	.section	.text._ZNSt6vectorIfSaIfEEaSERKS1_,"axG",%progbits,_ZNSt6vectorIfSaIfEEaSERKS1_,comdat
	.weak	_ZNSt6vectorIfSaIfEEaSERKS1_
	.p2align	2
	.type	_ZNSt6vectorIfSaIfEEaSERKS1_,%function
_ZNSt6vectorIfSaIfEEaSERKS1_:           @ @_ZNSt6vectorIfSaIfEEaSERKS1_
.Lfunc_begin6:
	.file	53 "/usr/bin/../lib/gcc/arm-linux-gnueabihf/6.3.0/../../../../include/c++/6.3.0/bits" "vector.tcc"
	.loc	53 169 0                @ /usr/bin/../lib/gcc/arm-linux-gnueabihf/6.3.0/../../../../include/c++/6.3.0/bits/vector.tcc:169:0
	.fnstart
	.cfi_startproc
@ BB#0:
	.save	{r4, r5, r6, r7, r8, r9, r11, lr}
	push	{r4, r5, r6, r7, r8, r9, r11, lr}
.Ltmp245:
	.cfi_def_cfa_offset 32
.Ltmp246:
	.cfi_offset lr, -4
.Ltmp247:
	.cfi_offset r11, -8
.Ltmp248:
	.cfi_offset r9, -12
.Ltmp249:
	.cfi_offset r8, -16
.Ltmp250:
	.cfi_offset r7, -20
.Ltmp251:
	.cfi_offset r6, -24
.Ltmp252:
	.cfi_offset r5, -28
.Ltmp253:
	.cfi_offset r4, -32
	.setfp	r11, sp, #24
	add	r11, sp, #24
.Ltmp254:
	.cfi_def_cfa r11, 8
	@DEBUG_VALUE: operator=:this <- %R0
	@DEBUG_VALUE: operator=:__x <- %R1
	mov	r7, r1
.Ltmp255:
	@DEBUG_VALUE: operator=:__x <- %R7
	mov	r4, r0
.Ltmp256:
	@DEBUG_VALUE: operator=:this <- %R4
	.loc	53 170 11 prologue_end  @ /usr/bin/../lib/gcc/arm-linux-gnueabihf/6.3.0/../../../../include/c++/6.3.0/bits/vector.tcc:170:11
	cmp	r7, r4
	beq	.LBB6_19
.Ltmp257:
@ BB#1:
	@DEBUG_VALUE: operator=:this <- %R4
	@DEBUG_VALUE: operator=:__x <- %R7
	@DEBUG_VALUE: size:this <- %R7
	.loc	7 656 66                @ /usr/bin/../lib/gcc/arm-linux-gnueabihf/6.3.0/../../../../include/c++/6.3.0/bits/stl_vector.h:656:66
	ldr	r8, [r7]
	.loc	7 656 40 is_stmt 0      @ /usr/bin/../lib/gcc/arm-linux-gnueabihf/6.3.0/../../../../include/c++/6.3.0/bits/stl_vector.h:656:40
	ldr	r3, [r7, #4]
.Ltmp258:
	.loc	7 737 21 is_stmt 1      @ /usr/bin/../lib/gcc/arm-linux-gnueabihf/6.3.0/../../../../include/c++/6.3.0/bits/stl_vector.h:737:21
	ldr	r0, [r4]
.Ltmp259:
	@DEBUG_VALUE: capacity:this <- %R4
	.loc	7 736 40                @ /usr/bin/../lib/gcc/arm-linux-gnueabihf/6.3.0/../../../../include/c++/6.3.0/bits/stl_vector.h:736:40
	ldr	r1, [r4, #8]
.Ltmp260:
	.loc	7 656 50                @ /usr/bin/../lib/gcc/arm-linux-gnueabihf/6.3.0/../../../../include/c++/6.3.0/bits/stl_vector.h:656:50
	sub	r6, r3, r8
.Ltmp261:
	.loc	7 737 5                 @ /usr/bin/../lib/gcc/arm-linux-gnueabihf/6.3.0/../../../../include/c++/6.3.0/bits/stl_vector.h:737:5
	sub	r1, r1, r0
.Ltmp262:
	.loc	7 656 50                @ /usr/bin/../lib/gcc/arm-linux-gnueabihf/6.3.0/../../../../include/c++/6.3.0/bits/stl_vector.h:656:50
	asr	r5, r6, #2
.Ltmp263:
	@DEBUG_VALUE: __xlen <- %R5
	@DEBUG_VALUE: _M_allocate_and_copy<__gnu_cxx::__normal_iterator<const float *, std::vector<float, std::allocator<float> > > >:__n <- %R5
	@DEBUG_VALUE: _M_allocate:__n <- %R5
	@DEBUG_VALUE: allocate:__n <- %R5
	@DEBUG_VALUE: allocate:__n <- %R5
	@DEBUG_VALUE: __copy_m<float>:_Num <- %R5
	.loc	53 192 8                @ /usr/bin/../lib/gcc/arm-linux-gnueabihf/6.3.0/../../../../include/c++/6.3.0/bits/vector.tcc:192:8
	cmp	r5, r1, asr #2
	bls	.LBB6_10
.Ltmp264:
@ BB#2:
	@DEBUG_VALUE: __copy_m<float>:_Num <- %R5
	@DEBUG_VALUE: allocate:__n <- %R5
	@DEBUG_VALUE: allocate:__n <- %R5
	@DEBUG_VALUE: _M_allocate:__n <- %R5
	@DEBUG_VALUE: _M_allocate_and_copy<__gnu_cxx::__normal_iterator<const float *, std::vector<float, std::allocator<float> > > >:__n <- %R5
	@DEBUG_VALUE: __xlen <- %R5
	@DEBUG_VALUE: capacity:this <- %R4
	@DEBUG_VALUE: size:this <- %R7
	@DEBUG_VALUE: operator=:this <- %R4
	@DEBUG_VALUE: operator=:__x <- %R7
	mov	r7, #0
.Ltmp265:
	.loc	7 170 9                 @ /usr/bin/../lib/gcc/arm-linux-gnueabihf/6.3.0/../../../../include/c++/6.3.0/bits/stl_vector.h:170:9
	cmp	r5, #0
	beq	.LBB6_5
.Ltmp266:
@ BB#3:
	@DEBUG_VALUE: __copy_m<float>:_Num <- %R5
	@DEBUG_VALUE: allocate:__n <- %R5
	@DEBUG_VALUE: allocate:__n <- %R5
	@DEBUG_VALUE: _M_allocate:__n <- %R5
	@DEBUG_VALUE: _M_allocate_and_copy<__gnu_cxx::__normal_iterator<const float *, std::vector<float, std::allocator<float> > > >:__n <- %R5
	@DEBUG_VALUE: __xlen <- %R5
	@DEBUG_VALUE: capacity:this <- %R4
	@DEBUG_VALUE: operator=:this <- %R4
	.loc	10 101 6                @ /usr/bin/../lib/gcc/arm-linux-gnueabihf/6.3.0/../../../../include/c++/6.3.0/ext/new_allocator.h:101:6
	cmp	r5, #1073741824
	bhs	.LBB6_20
.Ltmp267:
@ BB#4:                                 @ %_ZNSt16allocator_traitsISaIfEE8allocateERS0_j.exit.i.i
	@DEBUG_VALUE: __copy_m<float>:_Num <- %R5
	@DEBUG_VALUE: allocate:__n <- %R5
	@DEBUG_VALUE: allocate:__n <- %R5
	@DEBUG_VALUE: _M_allocate:__n <- %R5
	@DEBUG_VALUE: _M_allocate_and_copy<__gnu_cxx::__normal_iterator<const float *, std::vector<float, std::allocator<float> > > >:__n <- %R5
	@DEBUG_VALUE: __xlen <- %R5
	@DEBUG_VALUE: capacity:this <- %R4
	@DEBUG_VALUE: operator=:this <- %R4
	.loc	10 104 27               @ /usr/bin/../lib/gcc/arm-linux-gnueabihf/6.3.0/../../../../include/c++/6.3.0/ext/new_allocator.h:104:27
	mov	r0, r6
	bl	_Znwj
	mov	r7, r0
.Ltmp268:
.LBB6_5:                                @ %_ZNSt12_Vector_baseIfSaIfEE11_M_allocateEj.exit.i
	@DEBUG_VALUE: __copy_m<float>:_Num <- %R5
	@DEBUG_VALUE: allocate:__n <- %R5
	@DEBUG_VALUE: allocate:__n <- %R5
	@DEBUG_VALUE: _M_allocate:__n <- %R5
	@DEBUG_VALUE: _M_allocate_and_copy<__gnu_cxx::__normal_iterator<const float *, std::vector<float, std::allocator<float> > > >:__n <- %R5
	@DEBUG_VALUE: __xlen <- %R5
	@DEBUG_VALUE: capacity:this <- %R4
	@DEBUG_VALUE: operator=:this <- %R4
	@DEBUG_VALUE: uninitialized_copy<__gnu_cxx::__normal_iterator<const float *, std::vector<float, std::allocator<float> > >, float *>:__assignable <- 1
	@DEBUG_VALUE: __copy_move_a<false, const float *, float *>:__simple <- 1
	.file	54 "/usr/bin/../lib/gcc/arm-linux-gnueabihf/6.3.0/../../../../include/c++/6.3.0/bits" "stl_algobase.h"
	.loc	54 367 8                @ /usr/bin/../lib/gcc/arm-linux-gnueabihf/6.3.0/../../../../include/c++/6.3.0/bits/stl_algobase.h:367:8
	cmp	r6, #0
	beq	.LBB6_7
.Ltmp269:
@ BB#6:
	@DEBUG_VALUE: __copy_m<float>:_Num <- %R5
	@DEBUG_VALUE: allocate:__n <- %R5
	@DEBUG_VALUE: allocate:__n <- %R5
	@DEBUG_VALUE: _M_allocate:__n <- %R5
	@DEBUG_VALUE: _M_allocate_and_copy<__gnu_cxx::__normal_iterator<const float *, std::vector<float, std::allocator<float> > > >:__n <- %R5
	@DEBUG_VALUE: __xlen <- %R5
	@DEBUG_VALUE: capacity:this <- %R4
	@DEBUG_VALUE: operator=:this <- %R4
	.loc	54 368 6                @ /usr/bin/../lib/gcc/arm-linux-gnueabihf/6.3.0/../../../../include/c++/6.3.0/bits/stl_algobase.h:368:6
	mov	r0, r7
	mov	r1, r8
	mov	r2, r6
	bl	memmove
.Ltmp270:
	@DEBUG_VALUE: _M_allocate_and_copy<__gnu_cxx::__normal_iterator<const float *, std::vector<float, std::allocator<float> > > >:__result <- %R7
.LBB6_7:                                @ %_ZNSt6vectorIfSaIfEE20_M_allocate_and_copyIN9__gnu_cxx17__normal_iteratorIPKfS1_EEEEPfjT_S9_.exit
	@DEBUG_VALUE: __copy_m<float>:_Num <- %R5
	@DEBUG_VALUE: allocate:__n <- %R5
	@DEBUG_VALUE: allocate:__n <- %R5
	@DEBUG_VALUE: _M_allocate:__n <- %R5
	@DEBUG_VALUE: _M_allocate_and_copy<__gnu_cxx::__normal_iterator<const float *, std::vector<float, std::allocator<float> > > >:__n <- %R5
	@DEBUG_VALUE: __xlen <- %R5
	@DEBUG_VALUE: capacity:this <- %R4
	@DEBUG_VALUE: operator=:this <- %R4
	@DEBUG_VALUE: _M_allocate_and_copy<__gnu_cxx::__normal_iterator<const float *, std::vector<float, std::allocator<float> > > >:this <- %R4
	.loc	53 198 36               @ /usr/bin/../lib/gcc/arm-linux-gnueabihf/6.3.0/../../../../include/c++/6.3.0/bits/vector.tcc:198:36
	ldr	r0, [r4]
.Ltmp271:
	@DEBUG_VALUE: _M_deallocate:__p <- %R0
	@DEBUG_VALUE: deallocate:__p <- %R0
	@DEBUG_VALUE: deallocate:__p <- %R0
	.loc	7 177 6                 @ /usr/bin/../lib/gcc/arm-linux-gnueabihf/6.3.0/../../../../include/c++/6.3.0/bits/stl_vector.h:177:6
	cmp	r0, #0
	beq	.LBB6_9
.Ltmp272:
@ BB#8:
	@DEBUG_VALUE: deallocate:__p <- %R0
	@DEBUG_VALUE: deallocate:__p <- %R0
	@DEBUG_VALUE: _M_deallocate:__p <- %R0
	@DEBUG_VALUE: _M_allocate_and_copy<__gnu_cxx::__normal_iterator<const float *, std::vector<float, std::allocator<float> > > >:this <- %R4
	@DEBUG_VALUE: __copy_m<float>:_Num <- %R5
	@DEBUG_VALUE: allocate:__n <- %R5
	@DEBUG_VALUE: allocate:__n <- %R5
	@DEBUG_VALUE: _M_allocate:__n <- %R5
	@DEBUG_VALUE: _M_allocate_and_copy<__gnu_cxx::__normal_iterator<const float *, std::vector<float, std::allocator<float> > > >:__n <- %R5
	@DEBUG_VALUE: __xlen <- %R5
	@DEBUG_VALUE: capacity:this <- %R4
	@DEBUG_VALUE: operator=:this <- %R4
	.loc	10 110 9                @ /usr/bin/../lib/gcc/arm-linux-gnueabihf/6.3.0/../../../../include/c++/6.3.0/ext/new_allocator.h:110:9
	bl	_ZdlPv
.Ltmp273:
.LBB6_9:                                @ %_ZNSt12_Vector_baseIfSaIfEE13_M_deallocateEPfj.exit
	@DEBUG_VALUE: _M_allocate_and_copy<__gnu_cxx::__normal_iterator<const float *, std::vector<float, std::allocator<float> > > >:this <- %R4
	@DEBUG_VALUE: __copy_m<float>:_Num <- %R5
	@DEBUG_VALUE: allocate:__n <- %R5
	@DEBUG_VALUE: allocate:__n <- %R5
	@DEBUG_VALUE: _M_allocate:__n <- %R5
	@DEBUG_VALUE: _M_allocate_and_copy<__gnu_cxx::__normal_iterator<const float *, std::vector<float, std::allocator<float> > > >:__n <- %R5
	@DEBUG_VALUE: __xlen <- %R5
	@DEBUG_VALUE: capacity:this <- %R4
	@DEBUG_VALUE: operator=:this <- %R4
	.loc	53 201 31               @ /usr/bin/../lib/gcc/arm-linux-gnueabihf/6.3.0/../../../../include/c++/6.3.0/bits/vector.tcc:201:31
	str	r7, [r4]
	.loc	53 202 65               @ /usr/bin/../lib/gcc/arm-linux-gnueabihf/6.3.0/../../../../include/c++/6.3.0/bits/vector.tcc:202:65
	add	r0, r7, r5, lsl #2
	.loc	53 202 40 is_stmt 0     @ /usr/bin/../lib/gcc/arm-linux-gnueabihf/6.3.0/../../../../include/c++/6.3.0/bits/vector.tcc:202:40
	str	r0, [r4, #8]
.Ltmp274:
	.loc	53 218 18 is_stmt 1     @ /usr/bin/../lib/gcc/arm-linux-gnueabihf/6.3.0/../../../../include/c++/6.3.0/bits/vector.tcc:218:18
	add	r9, r4, #4
	b	.LBB6_18
.Ltmp275:
.LBB6_10:
	@DEBUG_VALUE: __copy_m<float>:_Num <- %R5
	@DEBUG_VALUE: allocate:__n <- %R5
	@DEBUG_VALUE: allocate:__n <- %R5
	@DEBUG_VALUE: _M_allocate:__n <- %R5
	@DEBUG_VALUE: _M_allocate_and_copy<__gnu_cxx::__normal_iterator<const float *, std::vector<float, std::allocator<float> > > >:__n <- %R5
	@DEBUG_VALUE: __xlen <- %R5
	@DEBUG_VALUE: capacity:this <- %R4
	@DEBUG_VALUE: size:this <- %R7
	@DEBUG_VALUE: operator=:this <- %R4
	@DEBUG_VALUE: operator=:__x <- %R7
	@DEBUG_VALUE: size:this <- %R4
	.loc	7 656 40                @ /usr/bin/../lib/gcc/arm-linux-gnueabihf/6.3.0/../../../../include/c++/6.3.0/bits/stl_vector.h:656:40
	mov	r9, r4
	ldr	r12, [r9, #4]!
	.loc	7 656 50 is_stmt 0      @ /usr/bin/../lib/gcc/arm-linux-gnueabihf/6.3.0/../../../../include/c++/6.3.0/bits/stl_vector.h:656:50
	sub	r2, r12, r0
	asr	r1, r2, #2
.Ltmp276:
	.loc	53 204 13 is_stmt 1     @ /usr/bin/../lib/gcc/arm-linux-gnueabihf/6.3.0/../../../../include/c++/6.3.0/bits/vector.tcc:204:13
	cmp	r1, r5
	bhs	.LBB6_15
.Ltmp277:
@ BB#11:
	@DEBUG_VALUE: size:this <- %R4
	@DEBUG_VALUE: __copy_m<float>:_Num <- %R5
	@DEBUG_VALUE: allocate:__n <- %R5
	@DEBUG_VALUE: allocate:__n <- %R5
	@DEBUG_VALUE: _M_allocate:__n <- %R5
	@DEBUG_VALUE: _M_allocate_and_copy<__gnu_cxx::__normal_iterator<const float *, std::vector<float, std::allocator<float> > > >:__n <- %R5
	@DEBUG_VALUE: __xlen <- %R5
	@DEBUG_VALUE: capacity:this <- %R4
	@DEBUG_VALUE: size:this <- %R7
	@DEBUG_VALUE: operator=:this <- %R4
	@DEBUG_VALUE: operator=:__x <- %R7
	@DEBUG_VALUE: __copy_move_a<false, float *, float *>:__simple <- 1
	.loc	54 367 8                @ /usr/bin/../lib/gcc/arm-linux-gnueabihf/6.3.0/../../../../include/c++/6.3.0/bits/stl_algobase.h:367:8
	cmp	r2, #0
	beq	.LBB6_13
.Ltmp278:
@ BB#12:
	@DEBUG_VALUE: size:this <- %R4
	@DEBUG_VALUE: __copy_m<float>:_Num <- %R5
	@DEBUG_VALUE: allocate:__n <- %R5
	@DEBUG_VALUE: allocate:__n <- %R5
	@DEBUG_VALUE: _M_allocate:__n <- %R5
	@DEBUG_VALUE: _M_allocate_and_copy<__gnu_cxx::__normal_iterator<const float *, std::vector<float, std::allocator<float> > > >:__n <- %R5
	@DEBUG_VALUE: __xlen <- %R5
	@DEBUG_VALUE: capacity:this <- %R4
	@DEBUG_VALUE: size:this <- %R7
	@DEBUG_VALUE: operator=:this <- %R4
	@DEBUG_VALUE: operator=:__x <- %R7
	.loc	54 368 6                @ /usr/bin/../lib/gcc/arm-linux-gnueabihf/6.3.0/../../../../include/c++/6.3.0/bits/stl_algobase.h:368:6
	mov	r1, r8
	bl	memmove
.Ltmp279:
	@DEBUG_VALUE: size:this <- %R4
	.loc	53 213 48               @ /usr/bin/../lib/gcc/arm-linux-gnueabihf/6.3.0/../../../../include/c++/6.3.0/bits/vector.tcc:213:48
	ldr	r8, [r7]
	.loc	53 214 20               @ /usr/bin/../lib/gcc/arm-linux-gnueabihf/6.3.0/../../../../include/c++/6.3.0/bits/vector.tcc:214:20
	ldr	r3, [r7, #4]
.Ltmp280:
	.loc	7 656 66                @ /usr/bin/../lib/gcc/arm-linux-gnueabihf/6.3.0/../../../../include/c++/6.3.0/bits/stl_vector.h:656:66
	ldm	r4, {r0, r12}
.Ltmp281:
.LBB6_13:                               @ %_ZSt4copyIPfS0_ET0_T_S2_S1_.exit
	@DEBUG_VALUE: size:this <- %R4
	@DEBUG_VALUE: __copy_m<float>:_Num <- %R5
	@DEBUG_VALUE: allocate:__n <- %R5
	@DEBUG_VALUE: allocate:__n <- %R5
	@DEBUG_VALUE: _M_allocate:__n <- %R5
	@DEBUG_VALUE: _M_allocate_and_copy<__gnu_cxx::__normal_iterator<const float *, std::vector<float, std::allocator<float> > > >:__n <- %R5
	@DEBUG_VALUE: __xlen <- %R5
	@DEBUG_VALUE: capacity:this <- %R4
	@DEBUG_VALUE: size:this <- %R7
	@DEBUG_VALUE: operator=:this <- %R4
	@DEBUG_VALUE: operator=:__x <- %R7
	.loc	7 656 50 is_stmt 0      @ /usr/bin/../lib/gcc/arm-linux-gnueabihf/6.3.0/../../../../include/c++/6.3.0/bits/stl_vector.h:656:50
	sub	r0, r12, r0
.Ltmp282:
	.loc	53 213 57 is_stmt 1     @ /usr/bin/../lib/gcc/arm-linux-gnueabihf/6.3.0/../../../../include/c++/6.3.0/bits/vector.tcc:213:57
	add	r1, r8, r0
.Ltmp283:
	@DEBUG_VALUE: __copy_m<float>:__first <- %R1
	@DEBUG_VALUE: __copy_move_a<false, float *, float *>:__simple <- 1
	@DEBUG_VALUE: __copy_move_a<false, float *, float *>:__first <- %R1
	@DEBUG_VALUE: __copy_move_a2<false, float *, float *>:__first <- %R1
	@DEBUG_VALUE: copy<float *, float *>:__first <- %R1
	@DEBUG_VALUE: __uninit_copy<float *, float *>:__first <- %R1
	@DEBUG_VALUE: uninitialized_copy<float *, float *>:__assignable <- 1
	@DEBUG_VALUE: uninitialized_copy<float *, float *>:__first <- %R1
	@DEBUG_VALUE: __uninitialized_copy_a<float *, float *, float>:__first <- %R1
	.loc	54 366 34               @ /usr/bin/../lib/gcc/arm-linux-gnueabihf/6.3.0/../../../../include/c++/6.3.0/bits/stl_algobase.h:366:34
	subs	r2, r3, r1
	beq	.LBB6_18
.Ltmp284:
@ BB#14:
	@DEBUG_VALUE: __uninitialized_copy_a<float *, float *, float>:__first <- %R1
	@DEBUG_VALUE: uninitialized_copy<float *, float *>:__first <- %R1
	@DEBUG_VALUE: __uninit_copy<float *, float *>:__first <- %R1
	@DEBUG_VALUE: copy<float *, float *>:__first <- %R1
	@DEBUG_VALUE: __copy_move_a2<false, float *, float *>:__first <- %R1
	@DEBUG_VALUE: __copy_move_a<false, float *, float *>:__first <- %R1
	@DEBUG_VALUE: __copy_m<float>:__first <- %R1
	@DEBUG_VALUE: size:this <- %R4
	@DEBUG_VALUE: __copy_m<float>:_Num <- %R5
	@DEBUG_VALUE: allocate:__n <- %R5
	@DEBUG_VALUE: allocate:__n <- %R5
	@DEBUG_VALUE: _M_allocate:__n <- %R5
	@DEBUG_VALUE: _M_allocate_and_copy<__gnu_cxx::__normal_iterator<const float *, std::vector<float, std::allocator<float> > > >:__n <- %R5
	@DEBUG_VALUE: __xlen <- %R5
	@DEBUG_VALUE: capacity:this <- %R4
	@DEBUG_VALUE: size:this <- %R7
	@DEBUG_VALUE: operator=:this <- %R4
	@DEBUG_VALUE: operator=:__x <- %R7
	.loc	54 368 6                @ /usr/bin/../lib/gcc/arm-linux-gnueabihf/6.3.0/../../../../include/c++/6.3.0/bits/stl_algobase.h:368:6
	mov	r0, r12
	b	.LBB6_17
.Ltmp285:
.LBB6_15:
	@DEBUG_VALUE: size:this <- %R4
	@DEBUG_VALUE: __copy_m<float>:_Num <- %R5
	@DEBUG_VALUE: allocate:__n <- %R5
	@DEBUG_VALUE: allocate:__n <- %R5
	@DEBUG_VALUE: _M_allocate:__n <- %R5
	@DEBUG_VALUE: _M_allocate_and_copy<__gnu_cxx::__normal_iterator<const float *, std::vector<float, std::allocator<float> > > >:__n <- %R5
	@DEBUG_VALUE: __xlen <- %R5
	@DEBUG_VALUE: capacity:this <- %R4
	@DEBUG_VALUE: size:this <- %R7
	@DEBUG_VALUE: operator=:this <- %R4
	@DEBUG_VALUE: operator=:__x <- %R7
	@DEBUG_VALUE: __copy_move_a<false, const float *, float *>:__simple <- 1
	.loc	54 367 8                @ /usr/bin/../lib/gcc/arm-linux-gnueabihf/6.3.0/../../../../include/c++/6.3.0/bits/stl_algobase.h:367:8
	cmp	r5, #0
	beq	.LBB6_18
.Ltmp286:
@ BB#16:
	@DEBUG_VALUE: size:this <- %R4
	@DEBUG_VALUE: __copy_m<float>:_Num <- %R5
	@DEBUG_VALUE: allocate:__n <- %R5
	@DEBUG_VALUE: allocate:__n <- %R5
	@DEBUG_VALUE: _M_allocate:__n <- %R5
	@DEBUG_VALUE: _M_allocate_and_copy<__gnu_cxx::__normal_iterator<const float *, std::vector<float, std::allocator<float> > > >:__n <- %R5
	@DEBUG_VALUE: __xlen <- %R5
	@DEBUG_VALUE: capacity:this <- %R4
	@DEBUG_VALUE: size:this <- %R7
	@DEBUG_VALUE: operator=:this <- %R4
	@DEBUG_VALUE: operator=:__x <- %R7
	.loc	54 368 6                @ /usr/bin/../lib/gcc/arm-linux-gnueabihf/6.3.0/../../../../include/c++/6.3.0/bits/stl_algobase.h:368:6
	mov	r1, r8
	mov	r2, r6
.Ltmp287:
.LBB6_17:                               @ %_ZSt22__uninitialized_copy_aIPfS0_fET0_T_S2_S1_RSaIT1_E.exit
	@DEBUG_VALUE: size:this <- %R4
	@DEBUG_VALUE: __copy_m<float>:_Num <- %R5
	@DEBUG_VALUE: allocate:__n <- %R5
	@DEBUG_VALUE: allocate:__n <- %R5
	@DEBUG_VALUE: _M_allocate:__n <- %R5
	@DEBUG_VALUE: _M_allocate_and_copy<__gnu_cxx::__normal_iterator<const float *, std::vector<float, std::allocator<float> > > >:__n <- %R5
	@DEBUG_VALUE: __xlen <- %R5
	@DEBUG_VALUE: capacity:this <- %R4
	@DEBUG_VALUE: size:this <- %R7
	@DEBUG_VALUE: operator=:this <- %R4
	@DEBUG_VALUE: operator=:__x <- %R7
	.loc	54 368 6 is_stmt 0      @ /usr/bin/../lib/gcc/arm-linux-gnueabihf/6.3.0/../../../../include/c++/6.3.0/bits/stl_algobase.h:368:6
	bl	memmove
.Ltmp288:
.LBB6_18:                               @ %_ZSt22__uninitialized_copy_aIPfS0_fET0_T_S2_S1_RSaIT1_E.exit
	@DEBUG_VALUE: __copy_m<float>:_Num <- %R5
	@DEBUG_VALUE: allocate:__n <- %R5
	@DEBUG_VALUE: allocate:__n <- %R5
	@DEBUG_VALUE: _M_allocate:__n <- %R5
	@DEBUG_VALUE: _M_allocate_and_copy<__gnu_cxx::__normal_iterator<const float *, std::vector<float, std::allocator<float> > > >:__n <- %R5
	@DEBUG_VALUE: __xlen <- %R5
	@DEBUG_VALUE: capacity:this <- %R4
	@DEBUG_VALUE: operator=:this <- %R4
	.loc	53 218 44 is_stmt 1     @ /usr/bin/../lib/gcc/arm-linux-gnueabihf/6.3.0/../../../../include/c++/6.3.0/bits/vector.tcc:218:44
	ldr	r0, [r4]
	.loc	53 218 53 is_stmt 0     @ /usr/bin/../lib/gcc/arm-linux-gnueabihf/6.3.0/../../../../include/c++/6.3.0/bits/vector.tcc:218:53
	add	r0, r0, r5, lsl #2
	.loc	53 218 28               @ /usr/bin/../lib/gcc/arm-linux-gnueabihf/6.3.0/../../../../include/c++/6.3.0/bits/vector.tcc:218:28
	str	r0, [r9]
.Ltmp289:
.LBB6_19:
	@DEBUG_VALUE: operator=:this <- %R4
	.loc	53 220 7 is_stmt 1      @ /usr/bin/../lib/gcc/arm-linux-gnueabihf/6.3.0/../../../../include/c++/6.3.0/bits/vector.tcc:220:7
	mov	r0, r4
	pop	{r4, r5, r6, r7, r8, r9, r11, pc}
.Ltmp290:
.LBB6_20:
	@DEBUG_VALUE: __copy_m<float>:_Num <- %R5
	@DEBUG_VALUE: allocate:__n <- %R5
	@DEBUG_VALUE: allocate:__n <- %R5
	@DEBUG_VALUE: _M_allocate:__n <- %R5
	@DEBUG_VALUE: _M_allocate_and_copy<__gnu_cxx::__normal_iterator<const float *, std::vector<float, std::allocator<float> > > >:__n <- %R5
	@DEBUG_VALUE: __xlen <- %R5
	@DEBUG_VALUE: capacity:this <- %R4
	@DEBUG_VALUE: operator=:this <- %R4
	.loc	10 102 4                @ /usr/bin/../lib/gcc/arm-linux-gnueabihf/6.3.0/../../../../include/c++/6.3.0/ext/new_allocator.h:102:4
	mov	lr, pc
	b	_ZSt17__throw_bad_allocv
.Ltmp291:
.Lfunc_end6:
	.size	_ZNSt6vectorIfSaIfEEaSERKS1_, .Lfunc_end6-_ZNSt6vectorIfSaIfEEaSERKS1_
	.cfi_endproc
	.file	55 "/usr/bin/../lib/gcc/arm-linux-gnueabihf/6.3.0/../../../../include/c++/6.3.0/bits" "stl_uninitialized.h"
	.fnend

	.section	.text.startup,"ax",%progbits
	.p2align	2
	.type	_GLOBAL__sub_I_render.ii,%function
_GLOBAL__sub_I_render.ii:               @ @_GLOBAL__sub_I_render.ii
.Lfunc_begin7:
	.loc	49 0 0                  @ /root/Bela/projects/gran_copy/build/render.cpp:0:0
	.fnstart
	.cfi_startproc
@ BB#0:
	.save	{r4, r5, r6, r7, r11, lr}
	push	{r4, r5, r6, r7, r11, lr}
.Ltmp295:
	.cfi_def_cfa_offset 24
.Ltmp296:
	.cfi_offset lr, -4
.Ltmp297:
	.cfi_offset r11, -8
.Ltmp298:
	.cfi_offset r7, -12
.Ltmp299:
	.cfi_offset r6, -16
.Ltmp300:
	.cfi_offset r5, -20
.Ltmp301:
	.cfi_offset r4, -24
	.setfp	r11, sp, #16
	add	r11, sp, #16
.Ltmp302:
	.cfi_def_cfa r11, 8
.Ltmp303:
	.loc	26 110 25 prologue_end  @ /usr/bin/../lib/gcc/arm-linux-gnueabihf/6.3.0/../../../../include/c++/6.3.0/bits/basic_string.h:110:25
	movw	r4, :lower16:.L_MergedGlobals
.Ltmp304:
	.loc	3 17 13 discriminator 6 @ /root/Bela/projects/gran_copy/render.cpp:17:13
	movw	r5, :lower16:__dso_handle
.Ltmp305:
	.loc	26 110 25               @ /usr/bin/../lib/gcc/arm-linux-gnueabihf/6.3.0/../../../../include/c++/6.3.0/bits/basic_string.h:110:25
	movt	r4, :upper16:.L_MergedGlobals
	add	r0, r4, #68
.Ltmp306:
	@DEBUG_VALUE: _S_copy:__d <- %R0
	@DEBUG_VALUE: _M_construct<const char *>:__dnew <- 14
	str	r0, [r4, #60]
.Ltmp307:
	@DEBUG_VALUE: _S_copy:__n <- 14
	.loc	27 290 33               @ /usr/bin/../lib/gcc/arm-linux-gnueabihf/6.3.0/../../../../include/c++/6.3.0/bits/char_traits.h:290:33
	movw	r0, :lower16:.L.str
.Ltmp308:
	movt	r0, :upper16:.L.str
	add	r1, r0, #6
	vldr	d17, [r0]
	add	r0, r4, #74
	vld1.16	{d16}, [r1]
.Ltmp309:
	.loc	3 17 13 discriminator 6 @ /root/Bela/projects/gran_copy/render.cpp:17:13
	movt	r5, :upper16:__dso_handle
.Ltmp310:
	.loc	26 110 25               @ /usr/bin/../lib/gcc/arm-linux-gnueabihf/6.3.0/../../../../include/c++/6.3.0/bits/basic_string.h:110:25
	add	r1, r4, #60
.Ltmp311:
	@DEBUG_VALUE: _M_length:this <- %R1
	@DEBUG_VALUE: _M_set_length:__n <- 14
	@DEBUG_VALUE: _M_set_length:this <- %R1
	@DEBUG_VALUE: _M_construct<const char *>:this <- %R1
	@DEBUG_VALUE: _M_construct_aux<const char *>:this <- %R1
	@DEBUG_VALUE: _M_construct<const char *>:this <- %R1
	@DEBUG_VALUE: basic_string:this <- %R1
	mov	r7, #0
.Ltmp312:
	@DEBUG_VALUE: allocate: <- %R7
	@DEBUG_VALUE: allocate:__n <- 6
	@DEBUG_VALUE: allocate:__n <- 6
	@DEBUG_VALUE: _M_allocate:__n <- 6
	@DEBUG_VALUE: _M_range_initialize<const float *>:__n <- 6
	.loc	27 290 33               @ /usr/bin/../lib/gcc/arm-linux-gnueabihf/6.3.0/../../../../include/c++/6.3.0/bits/char_traits.h:290:33
	vst1.16	{d16}, [r0]
	mov	r0, #14
.Ltmp313:
	@DEBUG_VALUE: _M_length:__length <- 14
	.loc	3 17 13 discriminator 6 @ /root/Bela/projects/gran_copy/render.cpp:17:13
	mov	r2, r5
.Ltmp314:
	.loc	27 290 33               @ /usr/bin/../lib/gcc/arm-linux-gnueabihf/6.3.0/../../../../include/c++/6.3.0/bits/char_traits.h:290:33
	vstr	d17, [r4, #68]
.Ltmp315:
	.loc	26 132 26               @ /usr/bin/../lib/gcc/arm-linux-gnueabihf/6.3.0/../../../../include/c++/6.3.0/bits/basic_string.h:132:26
	str	r0, [r4, #64]
.Ltmp316:
	.loc	3 17 13 discriminator 6 @ /root/Bela/projects/gran_copy/render.cpp:17:13
	movw	r0, :lower16:_ZNSt7__cxx1112basic_stringIcSt11char_traitsIcESaIcEED2Ev
	movt	r0, :upper16:_ZNSt7__cxx1112basic_stringIcSt11char_traitsIcESaIcEED2Ev
.Ltmp317:
	.loc	27 243 14               @ /usr/bin/../lib/gcc/arm-linux-gnueabihf/6.3.0/../../../../include/c++/6.3.0/bits/char_traits.h:243:14
	strb	r7, [r4, #82]
.Ltmp318:
	.loc	3 17 13 discriminator 6 @ /root/Bela/projects/gran_copy/render.cpp:17:13
	bl	__cxa_atexit
.Ltmp319:
	.loc	3 23 5                  @ /root/Bela/projects/gran_copy/render.cpp:23:5
	movw	r6, :lower16:gui
	movt	r6, :upper16:gui
	mov	r0, r6
	bl	_ZN3GuiC1Ev
	.loc	3 23 5 is_stmt 0 discriminator 1 @ /root/Bela/projects/gran_copy/render.cpp:23:5
	movw	r0, :lower16:_ZN3GuiD1Ev
	mov	r1, r6
	movt	r0, :upper16:_ZN3GuiD1Ev
	mov	r2, r5
	bl	__cxa_atexit
.Ltmp320:
	.loc	7 87 34 is_stmt 1       @ /usr/bin/../lib/gcc/arm-linux-gnueabihf/6.3.0/../../../../include/c++/6.3.0/bits/stl_vector.h:87:34
	movw	r0, :lower16:grain_generators
	vmov.i32	q8, #0x0
	movt	r0, :upper16:grain_generators
.Ltmp321:
	.loc	23 59 8                 @ /root/Bela/projects/gran_copy/./GrainGenerator/GrainGenerator.h:59:8
	mov	r2, #1065353216
.Ltmp322:
	.loc	7 87 34                 @ /usr/bin/../lib/gcc/arm-linux-gnueabihf/6.3.0/../../../../include/c++/6.3.0/bits/stl_vector.h:87:34
	mov	r1, r0
	vst1.32	{d16, d17}, [r1]!
.Ltmp323:
	.loc	23 59 8                 @ /root/Bela/projects/gran_copy/./GrainGenerator/GrainGenerator.h:59:8
	str	r2, [r1]
.Ltmp324:
	.loc	7 87 34                 @ /usr/bin/../lib/gcc/arm-linux-gnueabihf/6.3.0/../../../../include/c++/6.3.0/bits/stl_vector.h:87:34
	add	r1, r0, #52
.Ltmp325:
	.loc	23 62 8                 @ /root/Bela/projects/gran_copy/./GrainGenerator/GrainGenerator.h:62:8
	str	r7, [r0, #28]
	.loc	23 64 8                 @ /root/Bela/projects/gran_copy/./GrainGenerator/GrainGenerator.h:64:8
	str	r7, [r0, #36]
.Ltmp326:
	.loc	7 87 34                 @ /usr/bin/../lib/gcc/arm-linux-gnueabihf/6.3.0/../../../../include/c++/6.3.0/bits/stl_vector.h:87:34
	vst1.32	{d16, d17}, [r1]
	add	r1, r0, #104
.Ltmp327:
	.loc	23 59 8                 @ /root/Bela/projects/gran_copy/./GrainGenerator/GrainGenerator.h:59:8
	str	r2, [r0, #68]
	.loc	23 62 8                 @ /root/Bela/projects/gran_copy/./GrainGenerator/GrainGenerator.h:62:8
	str	r7, [r0, #80]
	.loc	23 64 8                 @ /root/Bela/projects/gran_copy/./GrainGenerator/GrainGenerator.h:64:8
	str	r7, [r0, #88]
.Ltmp328:
	.loc	7 87 34                 @ /usr/bin/../lib/gcc/arm-linux-gnueabihf/6.3.0/../../../../include/c++/6.3.0/bits/stl_vector.h:87:34
	vst1.32	{d16, d17}, [r1]
	add	r1, r0, #156
.Ltmp329:
	.loc	23 59 8                 @ /root/Bela/projects/gran_copy/./GrainGenerator/GrainGenerator.h:59:8
	str	r2, [r0, #120]
	.loc	23 62 8                 @ /root/Bela/projects/gran_copy/./GrainGenerator/GrainGenerator.h:62:8
	str	r7, [r0, #132]
	.loc	23 64 8                 @ /root/Bela/projects/gran_copy/./GrainGenerator/GrainGenerator.h:64:8
	str	r7, [r0, #140]
.Ltmp330:
	.loc	7 87 34                 @ /usr/bin/../lib/gcc/arm-linux-gnueabihf/6.3.0/../../../../include/c++/6.3.0/bits/stl_vector.h:87:34
	vst1.32	{d16, d17}, [r1]
.Ltmp331:
	.loc	3 31 16 discriminator 3 @ /root/Bela/projects/gran_copy/render.cpp:31:16
	mov	r1, #0
.Ltmp332:
	.loc	23 59 8                 @ /root/Bela/projects/gran_copy/./GrainGenerator/GrainGenerator.h:59:8
	str	r2, [r0, #172]
.Ltmp333:
	.loc	3 31 16 discriminator 3 @ /root/Bela/projects/gran_copy/render.cpp:31:16
	mov	r2, r5
.Ltmp334:
	.loc	23 62 8                 @ /root/Bela/projects/gran_copy/./GrainGenerator/GrainGenerator.h:62:8
	str	r7, [r0, #184]
	.loc	23 64 8                 @ /root/Bela/projects/gran_copy/./GrainGenerator/GrainGenerator.h:64:8
	str	r7, [r0, #192]
.Ltmp335:
	.loc	3 31 16 discriminator 3 @ /root/Bela/projects/gran_copy/render.cpp:31:16
	movw	r0, :lower16:__cxx_global_array_dtor
	movt	r0, :upper16:__cxx_global_array_dtor
	bl	__cxa_atexit
.Ltmp336:
	.loc	7 91 25                 @ /usr/bin/../lib/gcc/arm-linux-gnueabihf/6.3.0/../../../../include/c++/6.3.0/bits/stl_vector.h:91:25
	str	r7, [r4, #48]
	.loc	7 91 37 is_stmt 0       @ /usr/bin/../lib/gcc/arm-linux-gnueabihf/6.3.0/../../../../include/c++/6.3.0/bits/stl_vector.h:91:37
	str	r7, [r4, #52]
	.loc	7 91 50                 @ /usr/bin/../lib/gcc/arm-linux-gnueabihf/6.3.0/../../../../include/c++/6.3.0/bits/stl_vector.h:91:50
	str	r7, [r4, #56]
.Ltmp337:
	.loc	10 104 27 is_stmt 1     @ /usr/bin/../lib/gcc/arm-linux-gnueabihf/6.3.0/../../../../include/c++/6.3.0/ext/new_allocator.h:104:27
.Ltmp292:
	mov	r0, #24
	bl	_Znwj
.Ltmp293:
.Ltmp338:
	@DEBUG_VALUE: _S_copy:__s <- %R0
@ BB#1:                                 @ %__cxx_global_var_init.3.exit
	@DEBUG_VALUE: _S_copy:__s <- %R0
	@DEBUG_VALUE: allocate: <- %R7
	.loc	54 368 6                @ /usr/bin/../lib/gcc/arm-linux-gnueabihf/6.3.0/../../../../include/c++/6.3.0/bits/stl_algobase.h:368:6
	movw	r2, :lower16:.L.ref.tmp
.Ltmp339:
	.loc	7 1285 27               @ /usr/bin/../lib/gcc/arm-linux-gnueabihf/6.3.0/../../../../include/c++/6.3.0/bits/stl_vector.h:1285:27
	str	r0, [r4, #48]!
.Ltmp340:
	@DEBUG_VALUE: _M_range_initialize<const float *>:this <- %R4
	.loc	54 368 6                @ /usr/bin/../lib/gcc/arm-linux-gnueabihf/6.3.0/../../../../include/c++/6.3.0/bits/stl_algobase.h:368:6
	movt	r2, :upper16:.L.ref.tmp
.Ltmp341:
	.loc	7 1286 61               @ /usr/bin/../lib/gcc/arm-linux-gnueabihf/6.3.0/../../../../include/c++/6.3.0/bits/stl_vector.h:1286:61
	add	r1, r0, #24
.Ltmp342:
	.loc	54 368 6                @ /usr/bin/../lib/gcc/arm-linux-gnueabihf/6.3.0/../../../../include/c++/6.3.0/bits/stl_algobase.h:368:6
	vld1.32	{d16, d17}, [r2]!
	vldr	d18, [r2]
.Ltmp343:
	.loc	3 45 30 discriminator 6 @ /root/Bela/projects/gran_copy/render.cpp:45:30
	movw	r2, :lower16:__dso_handle
.Ltmp344:
	.loc	54 368 6                @ /usr/bin/../lib/gcc/arm-linux-gnueabihf/6.3.0/../../../../include/c++/6.3.0/bits/stl_algobase.h:368:6
	vst1.32	{d16, d17}, [r0]!
.Ltmp345:
	.loc	3 45 30 discriminator 6 @ /root/Bela/projects/gran_copy/render.cpp:45:30
	movt	r2, :upper16:__dso_handle
.Ltmp346:
	.loc	54 368 6                @ /usr/bin/../lib/gcc/arm-linux-gnueabihf/6.3.0/../../../../include/c++/6.3.0/bits/stl_algobase.h:368:6
	vstr	d18, [r0]
.Ltmp347:
	.loc	3 45 30 discriminator 6 @ /root/Bela/projects/gran_copy/render.cpp:45:30
	movw	r0, :lower16:_ZNSt6vectorIfSaIfEED2Ev
.Ltmp348:
	.loc	7 1286 36               @ /usr/bin/../lib/gcc/arm-linux-gnueabihf/6.3.0/../../../../include/c++/6.3.0/bits/stl_vector.h:1286:36
	str	r1, [r4, #8]
.Ltmp349:
	.loc	3 45 30 discriminator 6 @ /root/Bela/projects/gran_copy/render.cpp:45:30
	movt	r0, :upper16:_ZNSt6vectorIfSaIfEED2Ev
.Ltmp350:
	.loc	7 1287 28               @ /usr/bin/../lib/gcc/arm-linux-gnueabihf/6.3.0/../../../../include/c++/6.3.0/bits/stl_vector.h:1287:28
	str	r1, [r4, #4]
.Ltmp351:
	.loc	3 45 30 discriminator 6 @ /root/Bela/projects/gran_copy/render.cpp:45:30
	mov	r1, r4
.Ltmp352:
	@DEBUG_VALUE: __copy_m<float>:_Num <- 6
	@DEBUG_VALUE: __copy_move_a<false, const float *, float *>:__simple <- 1
	@DEBUG_VALUE: uninitialized_copy<const float *, float *>:__assignable <- 1
	pop	{r4, r5, r6, r7, r11, lr}
.Ltmp353:
	b	__cxa_atexit
.LBB7_2:
.Ltmp354:
	@DEBUG_VALUE: _S_copy:__s <- %R0
	@DEBUG_VALUE: allocate: <- %R7
.Ltmp294:
	mov	r5, r0
.Ltmp355:
	.loc	7 160 37                @ /usr/bin/../lib/gcc/arm-linux-gnueabihf/6.3.0/../../../../include/c++/6.3.0/bits/stl_vector.h:160:37
	ldr	r0, [r4, #48]
.Ltmp356:
	@DEBUG_VALUE: _M_deallocate:__p <- %R0
	@DEBUG_VALUE: deallocate:__p <- %R0
	@DEBUG_VALUE: deallocate:__p <- %R0
	.loc	7 177 6                 @ /usr/bin/../lib/gcc/arm-linux-gnueabihf/6.3.0/../../../../include/c++/6.3.0/bits/stl_vector.h:177:6
	cmp	r0, #0
	beq	.LBB7_4
.Ltmp357:
@ BB#3:
	@DEBUG_VALUE: deallocate:__p <- %R0
	@DEBUG_VALUE: deallocate:__p <- %R0
	@DEBUG_VALUE: _M_deallocate:__p <- %R0
	@DEBUG_VALUE: allocate: <- %R7
	.loc	10 110 9                @ /usr/bin/../lib/gcc/arm-linux-gnueabihf/6.3.0/../../../../include/c++/6.3.0/ext/new_allocator.h:110:9
	bl	_ZdlPv
.Ltmp358:
.LBB7_4:                                @ %.body.i
	@DEBUG_VALUE: allocate: <- %R7
	mov	r0, r5
	mov	lr, pc
	b	_Unwind_Resume
.Lfunc_end7:
	.size	_GLOBAL__sub_I_render.ii, .Lfunc_end7-_GLOBAL__sub_I_render.ii
	.cfi_endproc
	.globl	__gxx_personality_v0
	.personality __gxx_personality_v0
	.handlerdata
	.p2align	2
GCC_except_table7:
.Lexception1:
	.byte	255                     @ @LPStart Encoding = omit
	.byte	0                       @ @TType Encoding = absptr
	.byte	41                      @ @TType base offset
	.byte	3                       @ Call site Encoding = udata4
	.byte	39                      @ Call site table length
	.long	.Lfunc_begin7-.Lfunc_begin7 @ >> Call Site 1 <<
	.long	.Ltmp292-.Lfunc_begin7  @   Call between .Lfunc_begin7 and .Ltmp292
	.long	0                       @     has no landing pad
	.byte	0                       @   On action: cleanup
	.long	.Ltmp292-.Lfunc_begin7  @ >> Call Site 2 <<
	.long	.Ltmp293-.Ltmp292       @   Call between .Ltmp292 and .Ltmp293
	.long	.Ltmp294-.Lfunc_begin7  @     jumps to .Ltmp294
	.byte	0                       @   On action: cleanup
	.long	.Ltmp293-.Lfunc_begin7  @ >> Call Site 3 <<
	.long	.Lfunc_end7-.Ltmp293    @   Call between .Ltmp293 and .Lfunc_end7
	.long	0                       @     has no landing pad
	.byte	0                       @   On action: cleanup
	.p2align	2
	.fnend

	.type	.L.str,%object          @ @.str
	.section	.rodata.str1.8,"aMS",%progbits,1
	.p2align	3
.L.str:
	.asciz	"samples/AI.wav"
	.size	.L.str, 15

	.type	gui,%object             @ @gui
	.bss
	.globl	gui
	.p2align	2
gui:
	.zero	136
	.size	gui, 136

	.type	grain_generators,%object @ @grain_generators
	.globl	grain_generators
	.p2align	2
grain_generators:
	.zero	208
	.size	grain_generators, 208

	.type	.L.ref.tmp,%object      @ @.ref.tmp
	.section	.rodata,"a",%progbits
	.p2align	3
.L.ref.tmp:
	.long	1067450368              @ float 1.25
	.long	1071225242              @ float 1.70000005
	.long	1072902963              @ float 1.89999998
	.long	1073741824              @ float 2
	.long	1074790400              @ float 2.25
	.long	1075838976              @ float 2.5
	.size	.L.ref.tmp, 24

	.type	.L.str.4,%object        @ @.str.4
	.section	.rodata.str1.1,"aMS",%progbits,1
.L.str.4:
	.asciz	"Error loading audio file '%s'\n"
	.size	.L.str.4, 31

	.type	.L.str.5,%object        @ @.str.5
.L.str.5:
	.asciz	"gui"
	.size	.L.str.5, 4

	.section	.init_array,"aw",%init_array
	.p2align	2
	.long	_GLOBAL__sub_I_render.ii(target1)
	.type	.L_MergedGlobals,%object @ @_MergedGlobals
	.data
	.p2align	4
.L_MergedGlobals:
	.byte	0                       @ 0x0
	.byte	0                       @ 0x0
	.zero	2
	.long	1056964608              @ float 0.5
	.long	0                       @ 0x0
	.long	4                       @ 0x4
	.long	0                       @ 0x0
	.long	0                       @ float 0
	.long	0                       @ float 0
	.long	0                       @ float 0
	.long	1148846080              @ float 1000
	.long	0                       @ float 0
	.long	0                       @ 0x0
	.long	0                       @ float 0
	.zero	12
	.zero	24
	.size	.L_MergedGlobals, 84
